ccopy_reg
_reconstructor
p0
(cmoveit_msgs.msg._RobotTrajectory
RobotTrajectory
p1
c__builtin__
object
p2
Ntp3
Rp4
(lp5
g0
(ctrajectory_msgs.msg._JointTrajectory
JointTrajectory
p6
g2
Ntp7
Rp8
(lp9
g0
(cstd_msgs.msg._Header
Header
p10
g2
Ntp11
Rp12
(lp13
I0
ag0
(cgenpy.rostime
Time
p14
g2
Ntp15
Rp16
(lp17
I0
aI0
abaS'/world'
p18
aba(lp19
S'l_shoulder_pan_joint'
p20
aS'l_shoulder_lift_joint'
p21
aS'l_upper_arm_roll_joint'
p22
aS'l_elbow_flex_joint'
p23
aS'l_forearm_roll_joint'
p24
aS'l_wrist_flex_joint'
p25
aS'l_wrist_roll_joint'
p26
aa(lp27
g0
(ctrajectory_msgs.msg._JointTrajectoryPoint
JointTrajectoryPoint
p28
g2
Ntp29
Rp30
(lp31
(F0.40005789376491485
F-0.2480553714592295
F1.000924947337844
F-0.4992274973612281
F0.5010612980826314
F-0.5004161590647849
F1.2497885502243902
tp32
a(F0.0
F0.0
F0.0
F0.0
F0.0
F0.0
F0.0
tp33
a(F-0.5463822181022133
F0.0
F0.0
F0.0
F0.0
F0.0
F0.0
tp34
a(tag0
(cgenpy.rostime
Duration
p35
g2
Ntp36
Rp37
(lp38
I0
aI0
ababag0
(g28
g2
Ntp39
Rp40
(lp41
(F0.37040310249285224
F-0.24415557192351958
F0.9732424564410364
F-0.5181242900432255
F0.39286351228913796
F-0.531702092858257
F1.3264088093621393
tp42
a(F-0.15214691737321268
F0.020008317451579178
F-0.14202783005689842
F-0.09695191338322336
F-0.5551197249732724
F-0.16051565968375525
F0.39310801850518123
tp43
a(F-0.5312642192662347
F0.06986472899526247
F-0.49593054891915794
F-0.33853517021025276
F-1.9383583471743437
F-0.560486062380838
F1.3726484121013247
tp44
a(tag0
(g35
g2
Ntp45
Rp46
(lp47
I0
aI329468694
ababag0
(g28
g2
Ntp48
Rp49
(lp50
(F0.3407483112207896
F-0.24025577238780968
F0.9455599655442287
F-0.5370210827252229
F0.2846657264956445
F-0.5629880266517291
F1.4030290684998887
tp51
a(F-0.24713109668691904
F0.03249935996100153
F-0.2306947390588698
F-0.15747826570497148
F-0.9016768055094314
F-0.26072438205083764
F0.6385224058881351
tp52
a(F-0.5377671099523421
F0.07071990176804942
F-0.5020009410716442
F-0.34267897874363656
F-1.9620846437798267
F-0.5673466403429421
F1.3894501884127033
tp53
a(tag0
(g35
g2
Ntp54
Rp55
(lp56
I0
aI467857589
ababag0
(g28
g2
Ntp57
Rp58
(lp59
(F0.31109351994872697
F-0.23635597285209975
F0.917877474647421
F-0.5559178754072202
F0.17646794070215094
F-0.5942739604452012
F1.479649327637638
tp60
a(F-0.3018799156444495
F0.039699188710172015
F-0.28180228753217995
F-0.19236561567594615
F-1.1014320805227578
F-0.3184846242141252
F0.7799790985866821
tp61
a(F-0.5017723188996287
F0.06598635068189869
F-0.46840011527226927
F-0.31974217578608316
F-1.8307548813723367
F-0.5293719792012072
F1.296449020649787
tp62
a(tag0
(g35
g2
Ntp63
Rp64
(lp65
I0
aI573776532
ababag0
(g28
g2
Ntp66
Rp67
(lp68
(F0.28885242649468
F-0.2334311232003173
F0.8971156064748151
F-0.5700904699187181
F0.09531960135703081
F-0.6177384107903052
F1.53711452199095
tp69
a(F-0.3389504298869904
F0.044574204450639615
F-0.3164072916154784
F-0.21598789700747228
F-1.2366867016890752
F-0.3575941780006231
F0.8757596549755213
tp70
a(F-0.46135552395440627
F0.06067127708329367
F-0.43067138712557745
F-0.29398755866727166
F-1.6832910978027735
F-0.48673208471673113
F1.1920225462290837
tp71
a(tag0
(g35
g2
Ntp72
Rp73
(lp74
I0
aI642467771
ababag0
(g28
g2
Ntp75
Rp76
(lp77
(F0.266611333040633
F-0.23050627354853487
F0.8763537383022094
F-0.5842630644302163
F0.014171262011910685
F-0.6412028611354094
F1.5945797163442617
tp78
a(F-0.36688949343650057
F0.0482483745386684
F-0.3424881655383123
F-0.2337913840318987
F-1.3386245229830185
F-0.38707001158320803
F0.9479469204190734
tp79
a(F-0.42086984912143544
F0.05534714532772281
F-0.39287836020013855
F-0.26818904951940037
F-1.535576000667477
F-0.4440195216510269
F1.0874181041136626
tp80
a(tag0
(g35
g2
Ntp81
Rp82
(lp83
I0
aI705274906
ababag0
(g28
g2
Ntp84
Rp85
(lp86
(F0.24437023958658605
F-0.22758142389675243
F0.8555918701296037
F-0.5984356589417142
F-0.06697707733320946
F-0.6646673114805135
F1.6520449106975736
tp87
a(F-0.3913401036023064
F0.051463790128602624
F-0.36531259843101693
F-0.24937193919455908
F-1.4278344539169248
F-0.4128655116708462
F1.0111209306420061
tp88
a(F-0.4106061437693469
F0.053997400762010477
F-0.3832972801186971
F-0.26164875353796513
F-1.4981280826245993
F-0.4331912678563305
F1.0608993619455376
tp89
a(tag0
(g35
g2
Ntp90
Rp91
(lp92
I0
aI763856255
ababag0
(g28
g2
Ntp93
Rp94
(lp95
(F0.2221291461325391
F-0.22465657424497
F0.8348300019569979
F-0.6126082534532122
F-0.14812541667832957
F-0.6881317618256175
F1.7095101050508856
tp96
a(F-0.4001961488836516
F0.0629487579364661
F-0.36490869728331143
F-0.25488341570296436
F-1.4852220370551907
F-0.4184712117277406
F1.04908314934836
tp97
a(F0.09127456606289042
F0.3217525826305781
F0.3656189433281762
F0.06242557752043233
F-0.47791359164351965
F0.21716327327929613
F0.2518679276012812
tp98
a(tag0
(g35
g2
Ntp99
Rp100
(lp101
I0
aI819042536
ababag0
(g28
g2
Ntp102
Rp103
(lp104
(F0.19490862935716471
F-0.21966298974931311
F0.8106078224222911
F-0.6299358041206052
F-0.25087697708482476
F-0.7163374847849474
F1.781906893098747
tp105
a(F-0.3973737722476527
F0.07289793667222791
F-0.3536030903893055
F-0.25295310259294634
F-1.5
F-0.41175612585948107
F1.0568713666457117
tp106
a(F5.6725862422169374e-15
F-5.875178608010399e-15
F0.0
F0.0
F0.0
F-2.3500714432041597e-14
F0.0
tp107
a(tag0
(g35
g2
Ntp108
Rp109
(lp110
I0
aI887543576
ababag0
(g28
g2
Ntp111
Rp112
(lp113
(F0.16768811258179037
F-0.21466940525365627
F0.7863856428875844
F-0.6472633547879982
F-0.35362853749131995
F-0.7445432077442774
F1.8543036811466083
tp114
a(F-0.3973737722476527
F0.07289793667222791
F-0.3536030903893055
F-0.25295310259294634
F-1.5
F-0.41175612585948107
F1.0568713666457117
tp115
a(F-5.6725862422169374e-15
F5.875178608010399e-15
F0.0
F0.0
F0.0
F2.3500714432041597e-14
F0.0
tp116
a(tag0
(g35
g2
Ntp117
Rp118
(lp119
I0
aI956044616
ababag0
(g28
g2
Ntp120
Rp121
(lp122
(F0.140467595806416
F-0.2096758207579994
F0.7621634633528777
F-0.6645909054553912
F-0.45638009789781514
F-0.7727489307036073
F1.9267004691944696
tp123
a(F-0.39737377224765286
F0.07289793667222812
F-0.3536030903893055
F-0.25295310259294634
F-1.5
F-0.4117561258594803
F1.0568713666457117
tp124
a(F0.0
F0.0
F0.0
F0.0
F0.0
F0.0
F0.0
tp125
a(tag0
(g35
g2
Ntp126
Rp127
(lp128
I1
aI24545657
ababag0
(g28
g2
Ntp129
Rp130
(lp131
(F0.11324707903104161
F-0.20468223626234253
F0.7379412838181709
F-0.6819184561227842
F-0.5591316583043103
F-0.8009546536629372
F1.999097257242331
tp132
a(F-0.3973737722476529
F0.07289793667222794
F-0.3536030903893056
F-0.2529531025929464
F-1.5
F-0.4117561258594812
F1.0568713666457137
tp133
a(F-8.103694631738485e-16
F-5.267401510630015e-15
F-3.241477852695394e-15
F-1.620738926347697e-15
F0.0
F-2.6742192284737e-14
F5.834660134851709e-14
tp134
a(tag0
(g35
g2
Ntp135
Rp136
(lp137
I1
aI93046697
ababag0
(g28
g2
Ntp138
Rp139
(lp140
(F0.08602656225566725
F-0.19968865176668568
F0.7137191042834642
F-0.6992460067901772
F-0.6618832187108055
F-0.8291603766222672
F2.0714940452901924
tp141
a(F-0.3973737722476528
F0.07289793667222791
F-0.3536030903893055
F-0.25295310259294634
F-1.5
F-0.41175612585948107
F1.0568713666457117
tp142
a(F4.0518473158692406e-15
F4.659624413249627e-15
F6.482955705390785e-15
F4.0518473158692406e-15
F0.0
F3.079403960060623e-14
F-1.1345172484433875e-13
tp143
a(tag0
(g35
g2
Ntp144
Rp145
(lp146
I1
aI161547737
ababag0
(g28
g2
Ntp147
Rp148
(lp149
(F0.058806045480292876
F-0.1946950672710288
F0.6894969247487575
F-0.7165735574575702
F-0.7646347791173007
F-0.857366099581597
F2.1438908333380535
tp150
a(F-0.3811834931948741
F0.09508077778005859
F-0.31806317574814347
F-0.24232570356033636
F-1.5
F-0.3858708370207557
F1.0505655471213116
tp151
a(F0.49915903530472877
F0.6839144360394764
F1.095723517134207
F0.3276510696093
F0.0
F0.7980638112043207
F-0.19441337486170643
tp152
a(tag0
(g35
g2
Ntp153
Rp154
(lp155
I1
aI230048777
ababag0
(g28
g2
Ntp156
Rp157
(lp158
(F0.03645407769829502
F-0.18751391285547805
F0.6721953679382526
F-0.7307626240957545
F-0.8564938887497993
F-0.8794114008726426
F2.207840679206139
tp159
a(F-0.3649932141420956
F0.11726361888788889
F-0.2825232611069807
F-0.23169830452772655
F-1.5
F-0.35998554818203043
F1.044259727596915
tp160
a(F0.0
F-7.251690305295802e-15
F2.900676122118321e-14
F0.0
F0.0
F2.991322250934518e-14
F0.0
tp161
a(tag0
(g35
g2
Ntp162
Rp163
(lp164
I1
aI291288184
ababag0
(g28
g2
Ntp165
Rp166
(lp167
(F0.014102109916297165
F-0.18033275843992733
F0.6548938111277479
F-0.7449516907339389
F-0.9483529983822978
F-0.901456702163688
F2.2717905250742243
tp168
a(F-0.35441666621238754
F0.11386562616494489
F-0.27433647654064597
F-0.22498429416227475
F-1.456533926440655
F-0.34955410930364295
F1.0139998141737223
tp169
a(F0.33510844797112127
F-0.10766235591902458
F0.2593909362611655
F0.21272740483772182
F1.377183609120446
F0.33051079765099206
F-0.958758253674036
tp170
a(tag0
(g35
g2
Ntp171
Rp172
(lp173
I1
aI352527590
ababag0
(g28
g2
Ntp174
Rp175
(lp176
(F-0.008249857865700691
F-0.17315160402437657
F0.6375922543172431
F-0.7591407573721232
F-1.0402121080147964
F-0.9235020034547335
F2.3357403709423097
tp177
a(F-0.3291134157999478
F0.10573629499377979
F-0.25475047727780586
F-0.208921748360203
F-1.3525460325619392
F-0.32459801664882754
F0.941606234350279
tp178
a(F0.4328076126584368
F-0.13905076855154186
F0.3350150452731001
F0.27474699844861256
F1.7786944902896415
F0.4268695407568508
F-1.2382793492719966
tp179
a(tag0
(g35
g2
Ntp180
Rp181
(lp182
I1
aI417534454
ababag0
(g28
g2
Ntp183
Rp184
(lp185
(F-0.03060182564769854
F-0.16597044960882582
F0.6202906975067383
F-0.7733298240103075
F-1.132071217647295
F-0.9455473047457791
F2.399690216810395
tp186
a(F-0.29949845180604723
F0.09622171303279191
F-0.23182699300210768
F-0.19012211954473462
F-1.2308384383666218
F-0.29538936663928184
F0.8568766749096937
tp187
a(F0.39799559822434616
F-0.1278664981729485
F0.3080687803494287
F0.2526482732968623
F1.6356287574817852
F0.392535143256269
F-1.138680827158407
tp188
a(tag0
(g35
g2
Ntp189
Rp190
(lp191
I1
aI488631504
ababag0
(g28
g2
Ntp192
Rp193
(lp194
(F-0.05295379342969639
F-0.1587892951932751
F0.6029891406962335
F-0.7875188906484919
F-1.2239303272797935
F-0.9675926060368245
F2.4636400626784805
tp195
a(F-0.2660545778540948
F0.08547699357696778
F-0.20593973820706923
F-0.1688918922657977
F-1.0933953052227858
F-0.2624043388868553
F0.7611924557251278
tp196
a(F0.43958475606125447
F-0.14122810317131917
F0.3402608980203867
F0.27904914044780454
F1.806546282351377
F0.43355370251229786
F-1.2576690191329793
tp197
a(tag0
(g35
g2
Ntp198
Rp199
(lp200
I1
aI567166878
ababag0
(g28
g2
Ntp201
Rp202
(lp203
(F-0.07530576121169424
F-0.15160814077772433
F0.5856875838857287
F-0.8017079572866762
F-1.315789436912292
F-0.98963790732787
F2.527589908546566
tp204
a(F-0.20781930927125392
F0.09820502497583929
F-0.13444941534647487
F-0.13152249100330857
F-0.9304527439660681
F-0.19358304865174897
F0.6405170571682005
tp205
a(F0.7067758970059448
F0.3328983817022132
F1.017554818592105
F0.4558150429764518
F1.5440408851692986
F0.8998692186997982
F-1.2038641050585623
tp206
a(tag0
(g35
g2
Ntp207
Rp208
(lp209
I1
aI657478236
ababag0
(g28
g2
Ntp210
Rp211
(lp212
(F-0.09787947764959387
F-0.135914376834637
F0.5753066497994258
F-0.815929968178233
F-1.4290700871195474
F-1.0088449105107986
F2.604509057444198
tp213
a(F-0.19041539077046954
F0.13238113458647358
F-0.08756598081860992
F-0.11996650037257471
F-0.9555528587987533
F-0.16201625579324708
F0.6488337813300433
tp214
a(F-0.37066066344122717
F0.25769177047286634
F-0.1704550478497425
F-0.2335255697498926
F-1.8600694784301746
F-0.31537919607021103
F1.2630132410923367
tp215
a(tag0
(g35
g2
Ntp216
Rp217
(lp218
I1
aI791733994
ababag0
(g28
g2
Ntp219
Rp220
(lp221
(F-0.12045319408749348
F-0.12022061289154966
F0.5649257157131229
F-0.83015197906979
F-1.5423507373268026
F-1.028051913693727
F2.68142820634183
tp222
a(F-0.19848951534316012
F0.13799445064984656
F-0.09127901385968096
F-0.1250534025638245
F-0.9960708693782232
F-0.16888618068105343
F0.6763460782942292
tp223
a(F0.24846958626326865
F-0.17274173902997497
F0.11426325853547067
F0.15654210824248532
F1.2468835765728852
F0.2114120706419016
F-0.8466514211292938
tp224
a(tag0
(g35
g2
Ntp225
Rp226
(lp227
I1
aI897867788
ababag0
(g28
g2
Ntp228
Rp229
(lp230
(F-0.1430269105253931
F-0.10452684894846231
F0.5545447816268201
F-0.8443739899613469
F-1.655631387534058
F-1.0472589168766553
F2.7583473552394624
tp231
a(F-0.15644904653680702
F0.10876695524302366
F-0.07194593962546625
F-0.09856684653327721
F-0.7851011048512875
F-0.13311575624089617
F0.5330946518515295
tp232
a(F0.37366085153409473
F-0.2597775698512648
F0.17183473891320153
F0.2354157639432459
F1.8751251853112028
F0.31793192691574634
F-1.273236277040849
tp233
a(tag0
(g35
g2
Ntp234
Rp235
(lp236
I2
aI20359368
ababag0
(g28
g2
Ntp237
Rp238
(lp239
(F-0.16560062696329272
F-0.08883308500537498
F0.5441638475405172
F-0.8585960008529039
F-1.7689120377413134
F-1.0664659200595836
F2.8352665041370946
tp240
a(F-0.11065745506255315
F0.17417814524479278
F0.0308167612758886
F-0.06847485163694617
F-0.7915899464643574
F-0.05893624660271084
F0.5191620548204404
tp241
a(F0.20669625420194918
F0.9759342953866146
F1.035747307588759
F0.14452502107993426
F-1.6831526141398094
F0.5813396268311323
F0.9317452324824673
tp242
a(tag0
(g35
g2
Ntp243
Rp244
(lp245
I2
aI195879802
ababag0
(g28
g2
Ntp246
Rp247
(lp248
(F-0.18153676587883288
F-0.04432013759983704
F0.5649257157131229
F-0.8682091184607654
F-1.9301186335118445
F-1.067917396415734
F2.938423148853704
tp249
a(F-0.0809552081411591
F0.22612471824513153
F0.10546979843866637
F-0.048834409699515025
F-0.8189256873008807
F-0.0073734655017057855
F0.5240333112328197
tp250
a(F0.1637344796754799
F-0.45734442457454466
F-0.21331601715754805
F0.09876914464189997
F1.6563032123800203
F0.014913068165074398
F-1.059874015736124
tp251
a(tag0
(g35
g2
Ntp252
Rp253
(lp254
I2
aI367781934
ababag0
(g28
g2
Ntp255
Rp256
(lp257
(F-0.18950483533660295
F-0.022063663897068063
F0.5753066497994258
F-0.8730156772646962
F-2.01072193139711
F-1.0686431345938092
F2.9900014712120084
tp258
a(F-0.05415778173532722
F0.15127393798220518
F0.07055766336305894
F-0.032669464539802226
F-0.5478486146680047
F-0.004932734340921005
F0.3505701775517842
tp259
a(F0.18876459167455029
F-0.5272587284642348
F-0.24592566548105727
F0.11386799710925176
F1.909502507925201
F0.017192830907549587
F-1.221897099520083
tp260
a(tag0
(g35
g2
Ntp261
Rp262
(lp263
I2
aI482917968
ababag0
(g28
g2
Ntp264
Rp265
(lp266
(F-0.19747290479437302
F0.00019280980570091089
F0.5856875838857287
F-0.8778222360686271
F-2.0913252292823756
F-1.0693688727718842
F3.0415797935703126
tp267
a(F-0.0032262791825396486
F0.2032357897320691
F0.1673864667107159
F0.0005346577646688257
F-0.504548189594068
F0.07004357023584672
F0.30469236369076236
tp268
a(F0.37125970802075453
F0.9724811674484344
F1.2046470983891358
F0.2496213867331605
F-1.1269222092790416
F0.7615415081817067
F0.533133234635202
tp269
a(tag0
(g35
g2
Ntp270
Rp271
(lp272
I2
aI686653500
ababag0
(g28
g2
Ntp273
Rp274
(lp275
(F-0.19150057323971884
F0.054549821850761314
F0.6375922543172431
F-0.8733121755450495
F-2.2035157965699215
F-1.0430984516207547
F3.1067251984779296
tp276
a(F0.03911113959855679
F0.3559689656877884
F0.3399092619836288
F0.029535132991422682
F-0.7347048466197501
F0.1720376873842523
F0.42661915237454495
tp277
a(F0.08222705148833478
F0.7483872566817038
F0.7146234211881949
F0.06209450622323385
F-1.5446395546592881
F0.36169111725398584
F0.8969218327124863
tp278
a(tag0
(g35
g2
Ntp279
Rp280
(lp281
I2
aI869532368
ababag0
(g28
g2
Ntp282
Rp283
(lp284
(F-0.18552824168506465
F0.10890683389582172
F0.6894969247487575
F-0.868802115021472
F-2.3157063638574678
F-1.0168280304696253
F3.1718706033855466
tp285
a(F0.10166645793102905
F0.4408848641303754
F0.47656043244439084
F0.07058669782274833
F-0.7327775162580177
F0.27176491185480695
F0.40109589406286933
tp286
a(F0.8581331645325202
F0.4003984263465866
F1.2322810424624744
F0.5533801952138054
F1.883910285610824
F1.0912049610442507
F-1.4672128085314955
tp287
a(tag0
(g35
g2
Ntp288
Rp289
(lp290
I3
aI605239
ababag0
(g28
g2
Ntp291
Rp292
(lp293
(F-0.16495026315028094
F0.16982655570056374
F0.7621634633528777
F-0.8548766024102684
F-2.395219578823024
F-0.9720763443136426
F3.2116751817538365
tp294
a(F0.16057126771037528
F0.47536044136774736
F0.5670215956375588
F0.10866165545454862
F-0.6204466442204467
F0.34920023685011187
F0.31059764196320405
tp295
a(F0.05797684114846759
F0.17163653990173194
F0.2047322752494143
F0.039234039981421755
F-0.22402224909842075
F0.1260843670823058
F0.11214627875806447
tp296
a(tag0
(g35
g2
Ntp297
Rp298
(lp299
I3
aI131037175
ababag0
(g28
g2
Ntp300
Rp301
(lp302
(F-0.15466127388288908
F0.20028641660293475
F0.7984967326549377
F-0.8479138461046667
F-2.434976186305802
F-0.9497005012356513
F3.231577470937981
tp303
a(F0.15295028646649345
F0.4527990388241657
F0.540109801224725
F0.10350439133154324
F-0.5909992075410376
F0.3326266088695822
F0.29585615777647356
tp304
a(F-0.3084839803155984
F-0.9132460814982224
F-1.08934232905648
F-0.2087570239699339
F1.19198068939585
F-0.6708714487138078
F-0.5967094750865988
tp305
a(tag0
(g35
g2
Ntp306
Rp307
(lp308
I3
aI194015079
ababag0
(g28
g2
Ntp309
Rp310
(lp311
(F-0.14437228461549723
F0.23074627750530577
F0.8348300019569979
F-0.8409510897990649
F-2.47473279378858
F-0.92732465815766
F3.251479760122126
tp312
a(F0.164723956880229
F0.42618170476428163
F0.5300379328793187
F0.11068666741248659
F-0.48713116180242494
F0.33596924592020616
F0.22880418033050443
tp313
a(F0.4011421062455562
F0.07667785439274011
F0.4832077410243536
F0.25727125332756295
F1.1491164537510674
F0.4700794230525318
F-0.8473173481168171
tp314
a(tag0
(g35
g2
Ntp315
Rp316
(lp317
I3
aI266205350
ababag0
(g28
g2
Ntp318
Rp319
(lp320
(F-0.11649148259064873
F0.2949473541898886
F0.917877474647421
F-0.8223178511440482
F-2.537907332593141
F-0.8733323394992507
F3.2786139252207516
tp321
a(F0.1317376263444706
F0.30335201417980856
F0.39240180093789956
F0.08804261187803
F-0.2985015918875727
F0.25511532611414384
F0.12820974445950725
tp322
a(F-0.42998645410880965
F-0.9901290963211289
F-1.2807841134924198
F-0.2873676377994134
F0.9742975078809657
F-0.8326864352162938
F-0.41847158577298255
tp323
a(tag0
(g35
g2
Ntp324
Rp325
(lp326
I3
aI415362818
ababag0
(g28
g2
Ntp327
Rp328
(lp329
(F-0.08861068056580024
F0.35914843087447146
F1.000924947337844
F-0.8036846124890316
F-2.6010818713977026
F-0.8193400208408415
F3.3057480903193777
tp330
a(F0.0
F0.0
F0.0
F0.0
F0.0
F0.0
F0.0
tp331
a(F-0.42039041702938257
F-0.9680323176181593
F-1.2522007669093569
F-0.2809544345894055
F0.9525540438190757
F-0.8141033151400284
F-0.40913252679708473
tp332
a(tag0
(g35
g2
Ntp333
Rp334
(lp335
I3
aI779563894
ababaabag0
(ctrajectory_msgs.msg._MultiDOFJointTrajectory
MultiDOFJointTrajectory
p336
g2
Ntp337
Rp338
(lp339
g0
(g10
g2
Ntp340
Rp341
(lp342
I0
ag0
(g14
g2
Ntp343
Rp344
(lp345
I0
aI0
abaS''
p346
aba(lp347
a(lp348
abab.