ccopy_reg
_reconstructor
p0
(cmoveit_msgs.msg._RobotTrajectory
RobotTrajectory
p1
c__builtin__
object
p2
Ntp3
Rp4
(lp5
g0
(ctrajectory_msgs.msg._JointTrajectory
JointTrajectory
p6
g2
Ntp7
Rp8
(lp9
g0
(cstd_msgs.msg._Header
Header
p10
g2
Ntp11
Rp12
(lp13
I0
ag0
(cgenpy.rostime
Time
p14
g2
Ntp15
Rp16
(lp17
I0
aI0
abaS'/world'
p18
aba(lp19
S'l_shoulder_pan_joint'
p20
aS'l_shoulder_lift_joint'
p21
aS'l_upper_arm_roll_joint'
p22
aS'l_elbow_flex_joint'
p23
aS'l_forearm_roll_joint'
p24
aS'l_wrist_flex_joint'
p25
aS'l_wrist_roll_joint'
p26
aa(lp27
g0
(ctrajectory_msgs.msg._JointTrajectoryPoint
JointTrajectoryPoint
p28
g2
Ntp29
Rp30
(lp31
(F0.4000160245072264
F-0.24822582062960574
F1.0008604390815918
F-0.499585140853478
F0.5009203219401526
F-0.5005873155532692
F1.2499010659745817
tp32
a(F0.0
F0.0
F0.0
F0.0
F0.0
F0.0
F0.0
tp33
a(F-0.8223471196687872
F0.0
F0.0
F0.0
F0.0
F0.0
F0.0
tp34
a(tag0
(cgenpy.rostime
Duration
p35
g2
Ntp36
Rp37
(lp38
I0
aI0
ababag0
(g28
g2
Ntp39
Rp40
(lp41
(F0.3391295805390738
F-0.2603208649140326
F1.0046761202861514
F-0.5409541691205257
F0.35870350690134206
F-0.5545930096808607
F1.2050292506239435
tp42
a(F-0.2718847671550389
F-0.05400969550334314
F0.017038695779017256
F-0.18473091684743018
F-0.6350606657630273
F-0.2411591910443442
F-0.200372402678231
tp43
a(F-0.83768878167629
F-0.1664062187018498
F0.05249696206900344
F-0.5691639818262619
F-1.9566495061865938
F-0.7430219465762826
F-0.6173560793325539
tp44
a(tag0
(g35
g2
Ntp45
Rp46
(lp47
I0
aI384811210
ababag0
(g28
g2
Ntp48
Rp49
(lp50
(F0.27824313657092126
F-0.2724159091984595
F1.008491801490711
F-0.5823231973875735
F0.21648669186253156
F-0.6085987038084522
F1.160157435273305
tp51
a(F-0.41885200754439167
F-0.06153251047523031
F0.02528490012753665
F-0.2830455102251565
F-1.038161993422045
F-0.3677036377736931
F-0.234050131051568
tp52
a(F-0.46852946667693884
F0.2117915571440711
F0.01580064648394
F-0.29665361483384933
F-1.9358661239109451
F-0.3619278137572797
F0.7045852571524244
tp53
a(tag0
(g35
g2
Ntp54
Rp55
(lp56
I0
aI542734125
ababag0
(g28
g2
Ntp57
Rp58
(lp59
(F0.2210777250924754
F-0.27829185988924426
F1.0118305225447006
F-0.6207741701858007
F0.06783567935760457
F-0.6583394635373593
F1.136899428536584
tp60
a(F-0.43262424035699987
F-0.04446882543536736
F0.025267231047410986
F-0.29099454491100507
F-1.1249815176698401
F-0.37643494266829913
F-0.17601513286554038
tp61
a(F0.29506793879188664
F0.0303296104048224
F-0.017233314938584172
F0.19847052605216808
F0.7672847395788257
F0.2567444730575408
F0.12004972816121384
tp62
a(tag0
(g35
g2
Ntp63
Rp64
(lp65
I0
aI669161891
ababag0
(g28
g2
Ntp66
Rp67
(lp68
(F0.16391231361402953
F-0.28416781058002905
F1.0151692435986903
F-0.6592251429840279
F-0.08081533314732242
F-0.7080802232662664
F1.113641421799863
tp69
a(F-0.3642169948665668
F-0.0004216868490375253
F0.019625337933908967
F-0.2423488902166699
F-1.0492683787214596
F-0.3103980264915176
F-0.020710351509594604
tp70
a(F0.6602993754403067
F0.567973726499791
F-0.06081096607596791
F0.47970990817596565
F0.3366353698806527
F0.6625530182866176
F1.9908780822835623
tp71
a(tag0
(g35
g2
Ntp72
Rp73
(lp74
I0
aI807546840
ababag0
(g28
g2
Ntp75
Rp76
(lp77
(F0.11418896711499703
F-0.2776055740835296
F1.01755404435154
F-0.6918400048446137
F-0.24233474058448237
F-0.7492911141978048
F1.1336110322909765
tp78
a(F-0.30199944336187323
F0.039856363432625455
F0.014484312714221952
F-0.19808944531545075
F-0.9810033831715457
F-0.2502982401237542
F0.12128731626273517
tp79
a(F0.16178458244789387
F-0.021351513248030297
F-0.007759413257286016
F0.10611879889888912
F0.5255348187387306
F0.134087652000542
F-0.06497501319656246
tp80
a(tag0
(g35
g2
Ntp81
Rp82
(lp83
I0
aI965226445
ababag0
(g28
g2
Ntp84
Rp85
(lp86
(F0.06446562061596453
F-0.27104333758703014
F1.0199388451043898
F-0.7244548667051995
F-0.4038541480216423
F-0.7905020051293432
F1.15358064278209
tp87
a(F-0.2130504375998034
F0.06399448069851298
F0.00862224195666863
F-0.13719329464114022
F-0.7910931272543336
F-0.17026293133046477
F0.20911639043189323
tp88
a(F0.967632655514518
F0.33147598215231566
F-0.066835051642143
F0.6673598563928352
F1.8757923057197603
F0.8827887812374487
F1.19268734781264
tp89
a(tag0
(g35
g2
Ntp90
Rp91
(lp92
I1
aI137485363
ababag0
(g28
g2
Ntp93
Rp94
(lp95
(F0.04518549610100832
F-0.25843357894831726
F1.02041580525496
F-0.7363852144322616
F-0.4942651479393971
F-0.804710048997086
F1.1959861609485227
tp96
a(F-0.16286121934218073
F0.10651594422630936
F0.004028932055869003
F-0.10077688951117955
F-0.7637111304509013
F-0.1200168259791468
F0.35820382747346113
tp97
a(F-0.41891084826779146
F0.2739798015151608
F0.01036319973503845
F-0.2592178324676373
F-1.9644141114807483
F-0.30870670488901886
F0.9213701691892795
tp98
a(tag0
(g35
g2
Ntp99
Rp100
(lp101
I1
aI277759363
ababag0
(g28
g2
Ntp102
Rp103
(lp104
(F0.025905371586052113
F-0.2458238203096044
F1.0208927654055298
F-0.7483155621593235
F-0.5846761478571518
F-0.8189180928648288
F1.2383916791149554
tp105
a(F-0.17590941490693143
F0.11504984122550109
F0.004351724023129664
F-0.1088509820917237
F-0.8248985157925461
F-0.12963239328707843
F0.3869025785438174
tp106
a(F0.22455181178133968
F-0.1468633745727036
F-0.005555060906109828
F0.13895040953781057
F1.0529991038567015
F0.16547828775148593
F-0.493888715625892
tp107
a(tag0
(g35
g2
Ntp108
Rp109
(lp110
I1
aI380162735
ababag0
(g28
g2
Ntp111
Rp112
(lp113
(F0.006625247071095901
F-0.23321406167089154
F1.0213697255560996
F-0.7602459098863854
F-0.6750871477749065
F-0.8331261367325715
F1.280797197281388
tp114
a(F-0.13243538906258906
F0.08661657190065482
F0.003276244562584728
F-0.08194969081552192
F-0.6210341608715874
F-0.09759521085992916
F0.29128397445855164
tp115
a(F0.4037735609161749
F-0.2640795781114867
F-0.009988726901694436
F0.24985103083681248
F1.8934302708711888
F0.2975516294867051
F-0.8880765816254867
tp116
a(tag0
(g35
g2
Ntp117
Rp118
(lp119
I1
aI498053295
ababag0
(g28
g2
Ntp120
Rp121
(lp122
(F-0.012654877443860308
F-0.22060430303217865
F1.0218466857066697
F-0.7721762576134474
F-0.7654981476926612
F-0.8473341806003142
F1.3232027154478208
tp123
a(F-0.0892589264255895
F0.114797902676897
F-0.00030164988160683807
F-0.051219066616116776
F-0.5742958472831418
F-0.05584791469063013
F0.39061665282576075
tp124
a(F0.1404886654217206
F0.56485508818276
F-0.032689715033385344
F0.13365039481966848
F-1.153934179894704
F0.219109836987406
F1.9526529820106004
tp125
a(tag0
(g35
g2
Ntp126
Rp127
(lp128
I1
aI688327295
ababag0
(g28
g2
Ntp129
Rp130
(lp131
(F-0.024492936979403135
F-0.19555635720618159
F1.0213697255560996
F-0.7782704944028681
F-0.8687775425426489
F-0.8530123556706883
F1.408835850842088
tp132
a(F-0.09138835951596713
F0.19336705237964685
F-0.003682073534450937
F-0.0470467563551978
F-0.7973041898297397
F-0.043834811200935124
F0.6610772433095327
tp133
a(F-0.2139329049245398
F0.4526569406801295
F-0.008619442252183952
F-0.11013272705246459
F-1.8664259030602404
F-0.10261381806942027
F1.547529420483858
tp134
a(tag0
(g35
g2
Ntp135
Rp136
(lp137
I1
aI841690618
ababag0
(g28
g2
Ntp138
Rp139
(lp140
(F-0.036330996514945965
F-0.17050841138018452
F1.0208927654055298
F-0.7843647311922888
F-0.9720569373926367
F-0.8586905307410624
F1.4944689862363552
tp141
a(F-0.11721169147313357
F0.24800619471271368
F-0.004722505901049291
F-0.060340615806257734
F-1.0225960199256259
F-0.05622108103789013
F0.8478758377227307
tp142
a(F-0.22793238224410622
F0.4822781930855553
F-0.009183486789240147
F-0.11733966240005331
F-1.9885622668316751
F-0.10932872627507915
F1.6487976336700085
tp143
a(tag0
(g35
g2
Ntp144
Rp145
(lp146
I1
aI953807172
ababag0
(g28
g2
Ntp147
Rp148
(lp149
(F-0.048169056050488795
F-0.14546046555418746
F1.02041580525496
F-0.7904589679817094
F-1.0753363322426244
F-0.8643687058114364
F1.5801021216306226
tp150
a(F-0.13846515565775713
F0.2929760327096307
F-0.0055788164684366145
F-0.07128190588405153
F-1.2080187163450309
F-0.06641539456789748
F1.001617316269503
tp151
a(F-0.2241605867757118
F0.4742975161616554
F-0.00903151964219713
F-0.11539794090113253
F-1.95565579661971
F-0.10751956870707642
F1.6215135444951347
tp152
a(tag0
(g35
g2
Ntp153
Rp154
(lp155
I2
aI45691673
ababag0
(g28
g2
Ntp156
Rp157
(lp158
(F-0.06000711558603163
F-0.12041251972819036
F1.0199388451043898
F-0.7965532047711301
F-1.178615727092612
F-0.8700468808818105
F1.6657352570248898
tp159
a(F-0.10694098267971347
F0.33741172955991916
F-0.009252499470240809
F-0.04714745846983172
F-1.2397519479556027
F-0.03173558074541261
F1.1563099867713444
tp160
a(F0.940440293609746
F0.5498754395607358
F-0.07508646990449334
F0.6648043279572569
F1.1945402063231951
F0.89805635917789
F1.943364548238251
tp161
a(tag0
(g35
g2
Ntp162
Rp163
(lp164
I2
aI125627787
ababag0
(g28
g2
Ntp165
Rp166
(lp167
(F-0.06626362638701443
F-0.08603593351173014
F1.0187464447279648
F-0.7982703583573199
F-1.2915464181417744
F-0.8693276543541582
F1.7837891053400328
tp168
a(F-0.06996748784025883
F0.3844384601257246
F-0.013334790187706787
F-0.019203183129279384
F-1.2629206604315466
F0.008043216886959598
F1.3202136876656607
tp169
a(F-0.09314705430144746
F0.5117992831563539
F-0.017752479959643457
F-0.025565015936936223
F-1.681314321363275
F0.010707858510504015
F1.7575879862267965
tp170
a(tag0
(g35
g2
Ntp171
Rp172
(lp173
I2
aI220728944
ababag0
(g28
g2
Ntp174
Rp175
(lp176
(F-0.07252013718799723
F-0.051659347295269914
F1.01755404435154
F-0.7999875119435096
F-1.404477109190937
F-0.8686084278265057
F1.901842953655176
tp177
a(F-0.07305669207966795
F0.40141218545832075
F-0.013923547790001425
F-0.020051041992935573
F-1.318681128309854
F0.008398340966338486
F1.378503757050089
tp178
a(F0.02545760791881914
F-0.13987759013355874
F0.0048518514921293415
F0.006987061019177379
F0.4595125535912225
F-0.0029265172758771566
F-0.4803585703460064
tp179
a(tag0
(g35
g2
Ntp180
Rp181
(lp182
I2
aI305108747
ababag0
(g28
g2
Ntp183
Rp184
(lp185
(F-0.07877664798898001
F-0.01728276107880968
F1.0163616439751153
F-0.8017046655296993
F-1.5174078002400995
F-0.8678892012988533
F2.019896801970319
tp186
a(F-0.06767694259307629
F0.371852990576131
F-0.012898245426283279
F-0.018574523144402277
F-1.2215760730294019
F0.007779903842841947
F1.2769934823832898
tp187
a(F0.09242496132674227
F-0.5078317216527014
F0.0176148594931843
F0.025366831264917743
F1.6682804657161119
F-0.010624849235947725
F-1.7439628432011085
tp188
a(tag0
(g35
g2
Ntp189
Rp190
(lp191
I2
aI392045342
ababag0
(g28
g2
Ntp192
Rp193
(lp194
(F-0.08503315878996281
F0.01709382513765055
F1.0151692435986903
F-0.8034218191158891
F-1.6303384912892618
F-0.867169974771201
F2.1379506502854624
tp195
a(F-0.043419949619476775
F0.36189097083250166
F-0.01376090257829619
F-0.003144643899967578
F-1.1241196670257683
F0.02669436662583306
F1.2439692923390222
tp196
a(F0.46768734869990675
F0.3186925068039878
F-0.03935326890411247
F0.3338295736119871
F0.46919316430450675
F0.45457059781257864
F1.122229275415921
tp197
a(tag0
(g35
g2
Ntp198
Rp199
(lp200
I2
aI490747907
ababag0
(g28
g2
Ntp201
Rp202
(lp203
(F-0.08672347766414688
F0.044157611677718776
F1.0140563365806938
F-0.8026212178608018
F-1.709915083632781
F-0.8638472008203097
F2.2310624215715027
tp204
a(F-0.024680623980201953
F0.3951627999174402
F-0.016249738469826077
F0.011689710643753671
F-1.1619109170772584
F0.04851636913345121
F1.3595402916805317
tp205
a(F-0.035778763383453975
F0.5728557076810338
F-0.023556760486380297
F0.01694622435313521
F-1.6843875506593544
F0.07033273116764742
F1.9708849519090528
tp206
a(tag0
(g35
g2
Ntp207
Rp208
(lp209
I2
aI562822422
ababag0
(g28
g2
Ntp210
Rp211
(lp212
(F-0.08841379653833097
F0.071221398217787
F1.0129434295626971
F-0.8018206166057145
F-1.7894916759763004
F-0.8605244268694187
F2.324174192857543
tp213
a(F-0.026569674584572354
F0.42540849089379273
F-0.01749349058492279
F0.012584439033692753
F-1.2508433736427833
F0.052229803465862104
F1.4635992657050616
tp214
a(F-0.020761229559649725
F0.33240916474001486
F-0.01366920669937904
F0.009833331862094384
F-0.9773942221500257
F0.0408117508612879
F1.1436391605746734
tp215
a(tag0
(g35
g2
Ntp216
Rp217
(lp218
I2
aI628063360
ababag0
(g28
g2
Ntp219
Rp220
(lp221
(F-0.09010411541251503
F0.09828518475785523
F1.0118305225447006
F-0.8010200153506272
F-1.8690682683198196
F-0.8572016529185275
F2.4172859641435833
tp222
a(F-0.02723048091832651
F0.4359886966964897
F-0.017928565893848607
F0.012897422807496185
F-1.2819527205490342
F0.053528795097511433
F1.5
tp223
a(F0.0
F0.0
F0.0
F0.0
F0.0
F0.0
F0.0
tp224
a(tag0
(g35
g2
Ntp225
Rp226
(lp227
I2
aI690137874
ababag0
(g28
g2
Ntp228
Rp229
(lp230
(F-0.0917944342866991
F0.12534897129792347
F1.0107176155267041
F-0.8002194140955399
F-1.9486448606633389
F-0.8538788789676363
F2.5103977354296236
tp231
a(F-0.02723048091832651
F0.4359886966964896
F-0.017928565893850397
F0.012897422807496185
F-1.2819527205490342
F0.05352879509751054
F1.5
tp232
a(F0.0
F-3.577065528743536e-15
F-5.76242900021029e-14
F0.0
F0.0
F-2.8840090825494756e-14
F0.0
tp233
a(tag0
(g35
g2
Ntp234
Rp235
(lp236
I2
aI752212388
ababag0
(g28
g2
Ntp237
Rp238
(lp239
(F-0.09348475316088317
F0.15241275783799169
F1.0096047085087074
F-0.7994188128404526
F-2.028221453006858
F-0.8505561050167452
F2.603509506715664
tp240
a(F-0.02723048091832651
F0.4359886966964895
F-0.017928565893850397
F0.012897422807496185
F-1.281952720549036
F0.05352879509751054
F1.5
tp241
a(F0.0
F0.0
F5.76242900021029e-14
F0.0
F-5.723304845989657e-14
F2.8840090825494756e-14
F0.0
tp242
a(tag0
(g35
g2
Ntp243
Rp244
(lp245
I2
aI814286902
ababag0
(g28
g2
Ntp246
Rp247
(lp248
(F-0.09517507203506724
F0.1794765443780599
F1.008491801490711
F-0.7986182115853653
F-2.1077980453503775
F-0.847233331065854
F2.6966212780017043
tp249
a(F-0.016784437930622818
F0.42320661218155936
F-0.017922302832009393
F0.018938068414972472
F-1.2165442971407443
F0.06017960854091343
F1.456533926440655
tp250
a(F0.24788553189866297
F-0.30332000571765155
F0.00014862301611766237
F0.14334505909876083
F1.5521477219942035
F0.15782439627303269
F-1.0314538027928601
tp251
a(tag0
(g35
g2
Ntp252
Rp253
(lp254
I2
aI876361417
ababag0
(g28
g2
Ntp255
Rp256
(lp257
(F-0.09585003410149001
F0.22318177098498332
F1.006583960888431
F-0.795958281968324
F-2.2303800325987146
F-0.840116702940175
F2.8470958392377232
tp258
a(F-0.005884091645174373
F0.3810074247449251
F-0.016631910897889686
F0.023188369265453104
F-1.0686284206156167
F0.06204036371710976
F1.311786473086862
tp259
a(F0.007873707707039324
F-0.5098392882974951
F0.02225573850927085
F-0.03102916351563492
F1.429968861593416
F-0.08301836874812807
F-1.7553471097961644
tp260
a(tag0
(g35
g2
Ntp261
Rp262
(lp263
I2
aI982849269
ababag0
(g28
g2
Ntp264
Rp265
(lp266
(F-0.09652499616791277
F0.2668869975919067
F1.0046761202861514
F-0.7932983523512828
F-2.3529620198470518
F-0.8330000748144961
F2.9975704004737422
tp267
a(F-0.004793691538538173
F0.31040170314442156
F-0.013549797547139968
F0.018891257350055392
F-0.8705974221097879
F0.05054346270123901
F1.068695067243306
tp268
a(F0.008876235503419538
F-0.5747550912741038
F0.025089472921895024
F-0.034979983139660165
F1.612041093005528
F-0.09358876650442749
F-1.9788484557116475
tp269
a(tag0
(g35
g2
Ntp270
Rp271
(lp272
I3
aI107156521
ababag0
(g28
g2
Ntp273
Rp274
(lp275
(F-0.09719995823433553
F0.3105922241988301
F1.0027682796838717
F-0.7906384227342416
F-2.475544007095389
F-0.8258834466888172
F3.1480449617097617
tp276
a(F-0.002943431942196569
F0.19059346655961973
F-0.008319873439898484
F0.011599647133191657
F-0.534565947856833
F0.031034796750692737
F0.656202255005985
tp277
a(F0.008787762232048356
F-0.5690262591422081
F0.02483939531348299
F-0.034631322545910566
F1.5959731834702255
F-0.09265592686390076
F-1.959124418831721
tp278
a(tag0
(g35
g2
Ntp279
Rp280
(lp281
I3
aI269500883
ababag0
(g28
g2
Ntp282
Rp283
(lp284
(F-0.09787492030075828
F0.3542974508057535
F1.0008604390815918
F-0.7879784931172003
F-2.598125994343726
F-0.8187668185631383
F3.2985195229457807
tp285
a(F0.0
F0.0
F0.0
F0.0
F0.0
F0.0
F0.0
tp286
a(F0.008860858878799166
F-0.573759422188514
F0.025046009518195498
F-0.03491938604647295
F1.6092484957665054
F-0.09342663929062524
F-1.975420424777567
tp287
a(tag0
(g35
g2
Ntp288
Rp289
(lp290
I3
aI659817258
ababaabag0
(ctrajectory_msgs.msg._MultiDOFJointTrajectory
MultiDOFJointTrajectory
p291
g2
Ntp292
Rp293
(lp294
g0
(g10
g2
Ntp295
Rp296
(lp297
I0
ag0
(g14
g2
Ntp298
Rp299
(lp300
I0
aI0
abaS''
p301
aba(lp302
a(lp303
abab.