ccopy_reg
_reconstructor
p0
(cmoveit_msgs.msg._RobotTrajectory
RobotTrajectory
p1
c__builtin__
object
p2
Ntp3
Rp4
(lp5
g0
(ctrajectory_msgs.msg._JointTrajectory
JointTrajectory
p6
g2
Ntp7
Rp8
(lp9
g0
(cstd_msgs.msg._Header
Header
p10
g2
Ntp11
Rp12
(lp13
I0
ag0
(cgenpy.rostime
Time
p14
g2
Ntp15
Rp16
(lp17
I0
aI0
abaS'/world'
p18
aba(lp19
S'l_shoulder_pan_joint'
p20
aS'l_shoulder_lift_joint'
p21
aS'l_upper_arm_roll_joint'
p22
aS'l_elbow_flex_joint'
p23
aS'l_forearm_roll_joint'
p24
aS'l_wrist_flex_joint'
p25
aS'l_wrist_roll_joint'
p26
aa(lp27
g0
(ctrajectory_msgs.msg._JointTrajectoryPoint
JointTrajectoryPoint
p28
g2
Ntp29
Rp30
(lp31
(F0.39961174804340693
F-0.24874498028047665
F1.00068161975274
F-0.5006149972195706
F0.5006076334647531
F-0.5022138234084794
F1.2497409818094676
tp32
a(F0.0
F0.0
F0.0
F0.0
F0.0
F0.0
F0.0
tp33
a(F-0.32159766450176336
F0.0
F0.0
F0.0
F0.0
F0.0
F0.0
tp34
a(tag0
(cgenpy.rostime
Duration
p35
g2
Ntp36
Rp37
(lp38
I0
aI0
ababag0
(g28
g2
Ntp39
Rp40
(lp41
(F0.3804718672513752
F-0.22555405797025088
F1.00068161975274
F-0.5116432008845909
F0.3815204728680941
F-0.5143909312970902
F1.3284423531188245
tp42
a(F-0.09371462881990107
F0.11354974986044658
F0.0
F-0.05399741117760344
F-0.5830866541853295
F-0.059622792758256556
F0.38534564974637286
tp43
a(F-0.31210863669951283
F0.3781678279345506
F0.0
F-0.1798338061001413
F-1.941920733263542
F-0.1985686631673996
F1.283361060219958
tp44
a(tag0
(g35
g2
Ntp45
Rp46
(lp47
I0
aI345007208
ababag0
(g28
g2
Ntp48
Rp49
(lp50
(F0.36133198645934345
F-0.2023631356600251
F1.00068161975274
F-0.5226714045496113
F0.26243331227143507
F-0.5265680391857009
F1.4071437244281815
tp51
a(F-0.15108224943589
F0.18305948439242853
F0.0
F-0.08705204776625627
F-0.9400244597848636
F-0.09612101932216596
F0.6212358551395488
tp52
a(F-0.297162750823602
F0.3600585783539582
F0.0
F-0.17122213943488868
F-1.8489283509753263
F-0.18905984402797357
F1.221904997528246
tp53
a(tag0
(g35
g2
Ntp54
Rp55
(lp56
I0
aI490058500
ababag0
(g28
g2
Ntp57
Rp58
(lp59
(F0.34219210566731173
F-0.17917221334979933
F1.00068161975274
F-0.5336996082146316
F0.1433461516747761
F-0.5387451470743118
F1.4858450957375384
tp60
a(F-0.18488277076444684
F0.2240140374898557
F0.0
F-0.10652756264774779
F-1.1503292237194647
F-0.11762546855993171
F0.7602203874066491
tp61
a(F-0.28164169285083596
F0.34125241892537395
F0.0
F-0.16227906448681462
F-1.7523572832911858
F-0.1791850909125489
F1.1580838818221388
tp62
a(tag0
(g35
g2
Ntp63
Rp64
(lp65
I0
aI602505807
ababag0
(g28
g2
Ntp66
Rp67
(lp68
(F0.32305222487527996
F-0.15598129103957353
F1.00068161975274
F-0.5447278118796519
F0.024258991078117076
F-0.5509222549629226
F1.5645464670468954
tp69
a(F-0.21220773619633482
F0.2571224542739527
F0.0
F-0.12227192841453752
F-1.3203434773108524
F-0.13501006231639717
F0.8725780490784856
tp70
a(F-0.27960140822668633
F0.3387802989198545
F0.0
F-0.16110347334212088
F-1.7396627579000628
F-0.1778870281784162
F1.1496944252980743
tp71
a(tag0
(g35
g2
Ntp72
Rp73
(lp74
I0
aI698419317
ababag0
(g28
g2
Ntp75
Rp76
(lp77
(F0.30391234408324824
F-0.13279036872934777
F1.00068161975274
F-0.5557560155446722
F-0.094828169518542
F-0.5630993628515333
F1.6432478383562525
tp78
a(F-0.2329721755038205
F0.28228178018761163
F0.0
F-0.134236186089969
F-1.4495385410303512
F-0.14822074113102357
F0.9579594506517586
tp79
a(F-0.19719789773882823
F0.2389357162613574
F0.0
F-0.11362341292548912
F-1.2269531859949536
F-0.12546055548961238
F0.8108590194473964
tp80
a(tag0
(g35
g2
Ntp81
Rp82
(lp83
I0
aI783537687
ababag0
(g28
g2
Ntp84
Rp85
(lp86
(F0.2847724632912165
F-0.10959944641912198
F1.00068161975274
F-0.5667842192096926
F-0.21391533011520092
F-0.5752764707401441
F1.7219492096656093
tp87
a(F-0.24108242269110813
F0.2921085975267983
F0.0
F-0.13890922761655533
F-1.5
F-0.15338061417704735
F0.9913080165196869
tp88
a(F-6.2928743776178776e-15
F-1.1886540491055991e-14
F0.0
F-1.6081790076134577e-14
F0.0
F1.7480206604494105e-15
F5.87334941911002e-14
tp89
a(tag0
(g35
g2
Ntp90
Rp91
(lp92
I0
aI862929127
ababag0
(g28
g2
Ntp93
Rp94
(lp95
(F0.26563258249918476
F-0.08640852410889624
F1.00068161975274
F-0.577812422874713
F-0.33300249071185994
F-0.5874535786287549
F1.8006505809749664
tp96
a(F-0.24108242269110802
F0.2921085975267982
F0.0
F-0.13890922761655528
F-1.5
F-0.15338061417704726
F0.9913080165196879
tp97
a(F8.74010330224705e-15
F9.089707434336931e-15
F0.0
F1.782981073658398e-14
F0.0
F0.0
F-3.49604132089882e-14
tp98
a(tag0
(g35
g2
Ntp99
Rp100
(lp101
I0
aI942320567
ababag0
(g28
g2
Ntp102
Rp103
(lp104
(F0.24649270170715304
F-0.06321760179867045
F1.00068161975274
F-0.5888406265397333
F-0.45208965130851897
F-0.5996306865173657
F1.8793519522843234
tp105
a(F-0.24108242269110797
F0.29210859752679846
F0.0
F-0.1389092276165546
F-1.5
F-0.15338061417704663
F0.9913080165196869
tp106
a(F-6.992082641797642e-15
F-1.3984165283595284e-15
F0.0
F-1.7480206604494105e-15
F0.0
F1.5732185944044695e-14
F1.1187332226876227e-14
tp107
a(tag0
(g35
g2
Ntp108
Rp109
(lp110
I1
aI21712008
ababag0
(g28
g2
Ntp111
Rp112
(lp113
(F0.2273528209151213
F-0.04002667948844468
F1.00068161975274
F-0.5998688302047537
F-0.5711768119051779
F-0.6118077944059764
F1.9580533235936803
tp114
a(F-0.2410824226911079
F0.2921085975267982
F0.0
F-0.1389092276165545
F-1.5
F-0.15338061417704651
F0.9913080165196874
tp115
a(F8.740103302247045e-15
F-5.593666113438109e-15
F0.0
F4.894457849258345e-15
F0.0
F-1.2236144623145862e-14
F0.0
tp116
a(tag0
(g35
g2
Ntp117
Rp118
(lp119
I1
aI101103448
ababag0
(g28
g2
Ntp120
Rp121
(lp122
(F0.20821294012308955
F-0.01683575717821889
F1.00068161975274
F-0.610897033869774
F-0.6902639725018371
F-0.6239849022945873
F2.0367546949030375
tp123
a(F-0.24108242269110786
F0.2921085975267985
F0.0
F-0.13890922761655455
F-1.5
F-0.15338061417704657
F0.9913080165196865
tp124
a(F-7.341686773887522e-15
F1.398416528359528e-14
F0.0
F-6.642478509707758e-15
F0.0
F1.0138519830606577e-14
F-2.2374664453752445e-14
tp125
a(tag0
(g35
g2
Ntp126
Rp127
(lp128
I1
aI180494889
ababag0
(g28
g2
Ntp129
Rp130
(lp131
(F0.18907305933105784
F0.006355165132006901
F1.00068161975274
F-0.6219252375347943
F-0.8093511330984959
F-0.636162010183198
F2.1154560662123942
tp132
a(F-0.24108242269110824
F0.2921085975267988
F0.0
F-0.1389092276165547
F-1.5
F-0.15338061417704674
F0.9913080165196846
tp133
a(F-3.146437188808941e-15
F-6.992082641797647e-15
F0.0
F3.4960413208988234e-15
F0.0
F-1.3634561151505412e-14
F-2.3773080982111998e-14
tp134
a(tag0
(g35
g2
Ntp135
Rp136
(lp137
I1
aI259886329
ababag0
(g28
g2
Ntp138
Rp139
(lp140
(F0.16993317853902606
F0.029546087442232694
F1.00068161975274
F-0.6329534411998147
F-0.928438293695155
F-0.6483391180718088
F2.194157437521751
tp141
a(F-0.24108242269110802
F0.2921085975267982
F0.0
F-0.13890922761655455
F-1.5
F-0.15338061417704726
F0.9913080165196865
tp142
a(F8.74010330224705e-15
F-9.089707434336931e-15
F0.0
F0.0
F0.0
F0.0
F6.99208264179764e-14
tp143
a(tag0
(g35
g2
Ntp144
Rp145
(lp146
I1
aI339277769
ababag0
(g28
g2
Ntp147
Rp148
(lp149
(F0.15079329774699435
F0.05273700975245843
F1.00068161975274
F-0.643981644864835
F-1.047525454291814
F-0.6605162259604196
F2.272858808831108
tp150
a(F-0.2410824226911077
F0.2921085975267978
F0.0
F-0.13890922761655455
F-1.5
F-0.15338061417704726
F0.9913080165196893
tp151
a(F0.0
F0.0
F0.0
F0.0
F0.0
F0.0
F0.0
tp152
a(tag0
(g35
g2
Ntp153
Rp154
(lp155
I1
aI418669210
ababag0
(g28
g2
Ntp156
Rp157
(lp158
(F0.13165341695496263
F0.07592793206268417
F1.00068161975274
F-0.6550098485298553
F-1.166612614888473
F-0.6726933338490304
F2.3515601801404653
tp159
a(F-0.2410824226911079
F0.2921085975267984
F0.0
F-0.1389092276165547
F-1.5
F-0.15338061417704674
F0.9913080165196875
tp160
a(F-5.593666113438118e-15
F1.6081790076134587e-14
F0.0
F-3.4960413208988234e-15
F0.0
F1.3634561151505412e-14
F-4.614774543586447e-14
tp161
a(tag0
(g35
g2
Ntp162
Rp163
(lp164
I1
aI498060650
ababag0
(g28
g2
Ntp165
Rp166
(lp167
(F0.11251353616293092
F0.09911885437290996
F1.00068161975274
F-0.6660380521948757
F-1.2856997754851318
F-0.6848704417376411
F2.430261551449822
tp168
a(F-0.24108242269110802
F0.2921085975267985
F0.0
F-0.13890922761655455
F-1.5
F-0.15338061417704657
F0.9913080165196865
tp169
a(F2.7968330567190557e-15
F-1.398416528359528e-14
F0.0
F6.642478509707758e-15
F0.0
F-1.0138519830606577e-14
F2.2374664453752445e-14
tp170
a(tag0
(g35
g2
Ntp171
Rp172
(lp173
I1
aI577452091
ababag0
(g28
g2
Ntp174
Rp175
(lp176
(F0.09337365537089914
F0.12230977668313575
F1.00068161975274
F-0.677066255859896
F-1.404786936081791
F-0.6970475496262519
F2.508962922759179
tp177
a(F-0.24108242269110836
F0.2921085975267985
F0.0
F-0.13890922761655455
F-1.5
F-0.1533806141770473
F0.9913080165196865
tp178
a(F-1.1536936358966105e-14
F1.398416528359528e-14
F0.0
F-6.642478509707758e-15
F0.0
F-7.341686773887522e-15
F-2.2374664453752445e-14
tp179
a(tag0
(g35
g2
Ntp180
Rp181
(lp182
I1
aI656843531
ababag0
(g28
g2
Ntp183
Rp184
(lp185
(F0.07423377457886737
F0.14550069899336154
F1.00068161975274
F-0.6880944595249163
F-1.5238740966784499
F-0.7092246575148627
F2.587664294068536
tp186
a(F-0.24108242269110824
F0.2921085975267984
F0.0
F-0.1389092276165547
F-1.5
F-0.15338061417704674
F0.9913080165196875
tp187
a(F1.4333769415685177e-14
F-1.6081790076134587e-14
F0.0
F3.4960413208988234e-15
F0.0
F2.1325852057482822e-14
F4.614774543586447e-14
tp188
a(tag0
(g35
g2
Ntp189
Rp190
(lp191
I1
aI736234971
ababag0
(g28
g2
Ntp192
Rp193
(lp194
(F0.05509389378683566
F0.16869162130358728
F1.00068161975274
F-0.6991226631899367
F-1.6429612572751089
F-0.7214017654034734
F2.666365665377893
tp195
a(F-0.2410824226911077
F0.2921085975267982
F0.0
F-0.13890922761655455
F-1.5
F-0.15338061417704657
F0.9913080165196865
tp196
a(F0.0
F9.089707434336931e-15
F0.0
F0.0
F0.0
F-1.74802066044941e-14
F-6.99208264179764e-14
tp197
a(tag0
(g35
g2
Ntp198
Rp199
(lp200
I1
aI815626412
ababag0
(g28
g2
Ntp201
Rp202
(lp203
(F0.03595401299480394
F0.19188254361381307
F1.00068161975274
F-0.710150866854957
F-1.762048417871768
F-0.7335788732920843
F2.74506703668725
tp204
a(F-0.24108242269110758
F0.29210859752679796
F0.0
F-0.138909227616555
F-1.5
F-0.153380614177047
F0.9913080165196847
tp205
a(F2.4472289246291694e-15
F-1.3984165283595254e-14
F0.0
F-1.1187332226876204e-14
F0.0
F6.992082641797627e-15
F2.517149751047146e-14
tp206
a(tag0
(g35
g2
Ntp207
Rp208
(lp209
I1
aI895017852
ababag0
(g28
g2
Ntp210
Rp211
(lp212
(F0.01681413220277217
F0.21507346592403886
F1.00068161975274
F-0.7211790705199774
F-1.8811355784684274
F-0.7457559811806951
F2.823768407996607
tp213
a(F-0.24108242269110802
F0.2921085975267985
F0.0
F-0.13890922761655528
F-1.5
F-0.1533806141770473
F0.9913080165196866
tp214
a(F-1.3284957019415516e-14
F2.7269122303010795e-14
F0.0
F4.544853717168466e-15
F0.0
F-1.433376941568516e-14
F2.0976247925392918e-14
tp215
a(tag0
(g35
g2
Ntp216
Rp217
(lp218
I1
aI974409293
ababag0
(g28
g2
Ntp219
Rp220
(lp221
(F-0.0023257485892595464
F0.23826438823426466
F1.00068161975274
F-0.7322072741849978
F-2.000222739065086
F-0.7579330890693059
F2.9024697793059637
tp222
a(F-0.23409648514540354
F0.2836440550018544
F0.0
F-0.13488400181278615
F-1.4565339264406547
F-0.14893604547144884
F0.9625825050756793
tp223
a(F0.17073534026345075
F-0.20687223994143542
F0.0
F0.09837595780772962
F1.0623047816443172
F0.10862463990123593
F-0.7020474973541168
tp224
a(tag0
(g35
g2
Ntp225
Rp226
(lp227
I2
aI53800733
ababag0
(g28
g2
Ntp228
Rp229
(lp230
(F-0.021465629381291262
F0.26145531054449045
F1.00068161975274
F-0.7432354778500181
F-2.119309899661745
F-0.7701101969579166
F2.981171150615321
tp231
a(F-0.21432981355829822
F0.25969367881669186
F0.0
F-0.12349464769868235
F-1.333546912083961
F-0.1363601629395612
F0.8813038295692694
tp232
a(F0.2852213965320441
F-0.34558978292816217
F0.0
F0.16434165315631147
F1.774629979333854
F0.18146255744480377
F-1.1728032832465993
tp233
a(tag0
(g35
g2
Ntp234
Rp235
(lp236
I2
aI138076347
ababag0
(g28
g2
Ntp237
Rp238
(lp239
(F-0.040605510173323034
F0.28464623285471613
F1.00068161975274
F-0.7542636815150383
F-2.238397060258404
F-0.7822873048465274
F3.0598725219246776
tp240
a(F-0.18637552646514935
F0.22582274162230492
F0.0
F-0.10738767322358359
F-1.1596170578388456
F-0.11857518436100177
F0.7663584570190801
tp241
a(F0.29354775057636745
F-0.355678447108814
F0.0
F0.16913921324484474
F1.8264360418707175
F0.18675992123815052
F-1.2070404599779094
tp242
a(tag0
(g35
g2
Ntp243
Rp244
(lp245
I2
aI233040218
ababag0
(g28
g2
Ntp246
Rp247
(lp248
(F-0.059745390965354805
F0.30783715516494203
F1.00068161975274
F-0.7652918851800588
F-2.357484220855063
F-0.7944644127351382
F3.138573893234035
tp249
a(F-0.15054727173394677
F0.18241127626311615
F0.0
F-0.08674379908292479
F-0.9366958614409562
F-0.09578065768327443
F0.6190360776581558
tp250
a(F0.3188084916730272
F-0.38628573722923293
F0.0
F0.1836941940501486
F1.983606818661582
F0.2028312214214006
F-1.3109102273082527
tp251
a(tag0
(g35
g2
Ntp252
Rp253
(lp254
I2
aI344837298
ababag0
(g28
g2
Ntp255
Rp256
(lp257
(F-0.07888527175738652
F0.3310280774751677
F1.00068161975274
F-0.7763200888450791
F-2.476571381451722
F-0.8066415206237489
F3.2172752645433915
tp258
a(F-0.09233659655039282
F0.11188005088737583
F0.0
F-0.05320340307012182
F-0.5745126221958197
F-0.058746065896573454
F0.37967931198297356
tp259
a(F0.3024176996125761
F-0.3664257605968047
F0.0
F0.1742499872111483
F1.8816243189993302
F0.19240312913238738
F-1.2435128476682844
tp260
a(tag0
(g35
g2
Ntp261
Rp262
(lp263
I2
aI492188920
ababag0
(g28
g2
Ntp264
Rp265
(lp266
(F-0.09802515254941824
F0.3542189997853935
F1.00068161975274
F-0.7873482925100994
F-2.595658542048381
F-0.8188186285123598
F3.2959766358527482
tp267
a(F0.0
F0.0
F0.0
F0.0
F0.0
F0.0
F0.0
tp268
a(F0.3135773617346014
F-0.3799474152033507
F0.0
F0.18068007045209222
F1.9510590500601086
F0.1995030902626039
F-1.2894003180185762
tp269
a(tag0
(g35
g2
Ntp270
Rp271
(lp272
I2
aI841580360
ababaabag0
(ctrajectory_msgs.msg._MultiDOFJointTrajectory
MultiDOFJointTrajectory
p273
g2
Ntp274
Rp275
(lp276
g0
(g10
g2
Ntp277
Rp278
(lp279
I0
ag0
(g14
g2
Ntp280
Rp281
(lp282
I0
aI0
abaS''
p283
aba(lp284
a(lp285
abab.