ccopy_reg
_reconstructor
p0
(cmoveit_msgs.msg._RobotTrajectory
RobotTrajectory
p1
c__builtin__
object
p2
Ntp3
Rp4
(lp5
g0
(ctrajectory_msgs.msg._JointTrajectory
JointTrajectory
p6
g2
Ntp7
Rp8
(lp9
g0
(cstd_msgs.msg._Header
Header
p10
g2
Ntp11
Rp12
(lp13
I0
ag0
(cgenpy.rostime
Time
p14
g2
Ntp15
Rp16
(lp17
I0
aI0
abaS'/world'
p18
aba(lp19
S'l_shoulder_pan_joint'
p20
aS'l_shoulder_lift_joint'
p21
aS'l_upper_arm_roll_joint'
p22
aS'l_elbow_flex_joint'
p23
aS'l_forearm_roll_joint'
p24
aS'l_wrist_flex_joint'
p25
aS'l_wrist_roll_joint'
p26
aa(lp27
g0
(ctrajectory_msgs.msg._JointTrajectoryPoint
JointTrajectoryPoint
p28
g2
Ntp29
Rp30
(lp31
(F0.7201993122370931
F0.3497976011841013
F1.4151013634814795
F-1.451901823749739
F-2.887955545476732
F-0.7612979261534383
F-2.9891703497347306
tp32
a(F0.0
F0.0
F0.0
F0.0
F0.0
F0.0
F0.0
tp33
a(F-0.7517524011273552
F0.0
F0.0
F0.0
F0.0
F0.0
F0.0
tp34
a(tag0
(cgenpy.rostime
Duration
p35
g2
Ntp36
Rp37
(lp38
I0
aI0
ababag0
(g28
g2
Ntp39
Rp40
(lp41
(F0.6852118454797007
F0.32301375249413555
F1.4308946330798127
F-1.4098701176111612
F-2.7953917194875872
F-0.7739717057766172
F-2.961273001619038
tp42
a(F-0.19458221167333303
F-0.1489579268872407
F0.0878340049397128
F0.2337586312710121
F0.5147921713454077
F-0.07048501357468351
F0.15515063533501863
tp43
a(F-0.7389009840761822
F-0.5656486161628601
F0.33353836472092774
F0.8876684111928204
F1.9548572232307768
F-0.26765779587494853
F0.5891646319733922
tp44
a(tag0
(g35
g2
Ntp45
Rp46
(lp47
I0
aI305094118
ababag0
(g28
g2
Ntp48
Rp49
(lp50
(F0.6502243787223082
F0.29622990380416986
F1.4466879026781456
F-1.3678384114725832
F-2.7028278934984424
F-0.7866454853997963
F-2.933375653503346
tp51
a(F-0.31644626142340554
F-0.2422481411198205
F0.14284318309465682
F0.3801583110040361
F0.8371991284885635
F-0.1146287671430726
F0.25231925409326417
tp52
a(F-0.7456650354403819
F-0.5708266797685119
F0.336591643413939
F0.8957943101387879
F1.9727523877421154
F-0.2701079903101131
F0.59455796601755
tp53
a(tag0
(g35
g2
Ntp54
Rp55
(lp56
I0
aI432559140
ababag0
(g28
g2
Ntp57
Rp58
(lp59
(F0.6152369119649158
F0.2694460551142041
F1.4624811722764788
F-1.3258067053340055
F-2.6102640675092976
F-0.7993192650229752
F-2.9054783053876534
tp60
a(F-0.38952803015825954
F-0.2981942045877004
F0.17583214123661076
F0.4679540765234673
F1.0305463110971098
F-0.1411017392459174
F0.3105911935121437
tp61
a(F-0.6885679746660764
F-0.5271173410208551
F0.3108181491414176
F0.8272015510092964
F1.821694798044271
F-0.24942528211627837
F0.5490314752930273
tp62
a(tag0
(g35
g2
Ntp63
Rp64
(lp65
I0
aI530178863
ababag0
(g28
g2
Ntp66
Rp67
(lp68
(F0.5802494452075234
F0.24266220642423839
F1.478274441874812
F-1.2837749991954275
F-2.517700241520153
F-0.8119930446461542
F-2.877580957271961
tp69
a(F-0.44732483900863096
F-0.3424392193452812
F0.20192150033273099
F0.5373874682631836
F1.1834551739836492
F-0.16203792257613392
F0.35667563019500975
tp70
a(F-0.6796568337483153
F-0.5202956224994285
F0.3067956786973449
F0.8164962759170775
F1.7981192330283617
F-0.2461973308911875
F0.5419261537784661
tp71
a(tag0
(g35
g2
Ntp72
Rp73
(lp74
I0
aI613353564
ababag0
(g28
g2
Ntp75
Rp76
(lp77
(F0.5452619784501309
F0.21587835773427266
F1.4940677114731449
F-1.2417432930568497
F-2.4251364155310084
F-0.8246668242693332
F-2.8496836091562683
tp78
a(F-0.4962027136950946
F-0.3798565496415008
F0.22398487112975396
F0.5961062226029961
F1.312767853823241
F-0.1797433316736563
F0.3956485313981347
tp79
a(F-0.6285289022373942
F-0.4811558130667038
F0.2837166369378269
F0.7550744471337215
F1.662853739576982
F-0.22767686637592208
F0.5011591638822065
tp80
a(tag0
(g35
g2
Ntp81
Rp82
(lp83
I0
aI687166889
ababag0
(g28
g2
Ntp84
Rp85
(lp86
(F0.5102745116927385
F0.1890945090443069
F1.509860981071478
F-1.1997115869182717
F-2.3325725895418636
F-0.8373406038925122
F-2.8217862610405757
tp87
a(F-0.5490105323345679
F-0.40963668332564707
F0.2397850366745451
F0.6534976163587212
F1.4064901265420469
F-0.19603068192820539
F0.41863364242744316
tp88
a(F-0.9891084625730453
F-0.413130387140204
F0.18672714507692362
F0.9927680836171687
F1.1305353007405239
F-0.2664533199410685
F0.17068336600168268
tp89
a(tag0
(g35
g2
Ntp90
Rp91
(lp92
I0
aI754657351
ababag0
(g28
g2
Ntp93
Rp94
(lp95
(F0.47765650648092167
F0.165322724042454
F1.5236800919700195
F-1.1612071676581304
F-2.251453406879389
F-0.8488362477509434
F-2.797930327634102
tp96
a(F-0.5913823185579244
F-0.4309954958730358
F0.2505480574461308
F0.6981062327054708
F1.470735258362112
F-0.20842232607934963
F0.4325211525863917
tp97
a(F-0.42652792941621764
F-0.3108507147976742
F0.1807050038667052
F0.5035013672281416
F1.0607514712282706
F-0.15032228796345173
F0.3119510777585181
tp98
a(tag0
(g35
g2
Ntp99
Rp100
(lp101
I0
aI810932649
ababag0
(g28
g2
Ntp102
Rp103
(lp104
(F0.4450385012691048
F0.1415509390406011
F1.5374992028685608
F-1.1227027483979888
F-2.170334224216914
F-0.8603318916093746
F-2.774074394227628
tp105
a(F-0.6031496646274586
F-0.4395714593321999
F0.2555334714608878
F0.7119971749534159
F1.5
F-0.21256952081722
F0.44112747361622695
tp106
a(F-5.953548838397639e-14
F-5.2350170820393026e-14
F1.00594445890167e-13
F-4.105895750619061e-15
F0.0
F1.6423583002476243e-14
F-1.0880623739140512e-13
tp107
a(tag0
(g35
g2
Ntp108
Rp109
(lp110
I0
aI865012104
ababag0
(g28
g2
Ntp111
Rp112
(lp113
(F0.412420496057288
F0.11777915403874817
F1.5513183137671023
F-1.0841983291378474
F-2.0892150415544393
F-0.8718275354678058
F-2.7502184608211544
tp114
a(F-0.5972074490314343
F-0.4352408121737965
F0.25301596201261883
F0.7049825963745687
F1.4852220370551907
F-0.21047529114933206
F0.43678149664353205
tp115
a(F0.2175721084598344
F0.15856510387806927
F-0.09217771214735936
F-0.2568362972857525
F-0.541089851871723
F0.07667947368758483
F-0.1591263995703657
tp116
a(tag0
(g35
g2
Ntp117
Rp118
(lp119
I0
aI919091559
ababag0
(g28
g2
Ntp120
Rp121
(lp122
(F0.37980249084547113
F0.09400736903689526
F1.5651374246656438
F-1.045693909877706
F-2.0080958588919646
F-0.883323179326237
F-2.7263625274146808
tp123
a(F-0.5741319146823507
F-0.4184235163953727
F0.24323966312056927
F0.6777427316600024
F1.4278344539169248
F-0.20234272378362572
F0.41990467026571976
tp124
a(F0.6026134867212717
F0.4391806964444691
F-0.25530631158717515
F-0.7113642356070694
F-1.4986665550750529
F0.2123805543181001
F-0.44073532748879213
tp125
a(tag0
(g35
g2
Ntp126
Rp127
(lp128
I0
aI974258011
ababag0
(g28
g2
Ntp129
Rp130
(lp131
(F0.3471844856336543
F0.07023558403504235
F1.578956535564185
F-1.0071894906175647
F-1.92697667622949
F-0.8948188231846682
F-2.7025065940082067
tp132
a(F-0.5382606213995343
F-0.3922807567103447
F0.22804224756035096
F0.6353979191248486
F1.3386245229830185
F-0.18970051560312043
F0.3936693692961517
tp133
a(F0.6176766984212633
F0.4501586648286228
F-0.26168806889006313
F-0.7291458324562421
F-1.5361279330299586
F0.21768931909205383
F-0.4517521561660041
tp134
a(tag0
(g35
g2
Ntp135
Rp136
(lp137
I1
aI32818312
ababag0
(g28
g2
Ntp138
Rp139
(lp140
(F0.31456648042183744
F0.04646379903318943
F1.5927756464627265
F-0.9686850713574233
F-1.8458574935670153
F-0.9063144670430995
F-2.678650660601733
tp141
a(F-0.5410952855283
F-0.3684078474200846
F0.20966016339470325
F0.6240065187288053
F1.233622820334642
F-0.1837757430046093
F0.3491523275243427
tp142
a(F-0.6293683501487933
F0.2980687501706511
F-0.30468140992481757
F0.31298642089268786
F-1.7038243792657748
F-0.019812259488436505
F-0.898938204527671
tp143
a(tag0
(g35
g2
Ntp144
Rp145
(lp146
I1
aI95602880
ababag0
(g28
g2
Ntp147
Rp148
(lp149
(F0.27274785724083894
F0.019842312594748515
F1.6075818367111636
F-0.9215103031025205
F-1.7585126495533134
F-0.920023525536503
F-2.6549910046196787
tp150
a(F-0.542495825679407
F-0.34534961143334103
F0.1920746259203013
F0.6119788962183412
F1.1330887931667382
F-0.1778419862001931
F0.3069270012004478
tp151
a(F0.5226450695964703
F0.33271273834530773
F-0.18504632013728545
F-0.58958564778824
F-1.0916273326563883
F0.17133447458029658
F-0.2956960704766845
tp152
a(tag0
(g35
g2
Ntp153
Rp154
(lp155
I1
aI169924912
ababag0
(g28
g2
Ntp156
Rp157
(lp158
(F0.23092923405984042
F-0.0067791738436924
F1.622388026959601
F-0.8743355348476176
F-1.6711678055396118
F-0.9337325840299064
F-2.631331348637624
tp159
a(F-0.48388625372955696
F-0.3080391070182956
F0.17132347711004592
F0.5458625881255021
F1.0106733827522787
F-0.1586284877869084
F0.27376755681637494
tp160
a(F0.8839126360516802
F0.5626935193817758
F-0.31295575169307677
F-0.9971245007957399
F-1.8461920896705726
F0.2897658772323444
F-0.5000898474504626
tp161
a(tag0
(g35
g2
Ntp162
Rp163
(lp164
I1
aI249987565
ababag0
(g28
g2
Ntp165
Rp166
(lp167
(F0.1891106108788419
F-0.033400660282133315
F1.6371942172080383
F-0.8271607665927148
F-1.58382296152591
F-0.9474416425233099
F-2.607671692655569
tp168
a(F-0.3982496613149332
F-0.2535233623527449
F0.1410032134793922
F0.44925762856444473
F0.8318077425817307
F-0.13055494147462182
F0.22531707801328166
tp169
a(F0.8863518690856905
F0.5642463206027521
F-0.3138193800389028
F-0.9998761517193332
F-1.8512868157199125
F0.29056551112266976
F-0.5014698884479003
tp170
a(tag0
(g35
g2
Ntp171
Rp172
(lp173
I1
aI343867322
ababag0
(g28
g2
Ntp174
Rp175
(lp176
(F0.1472919876978434
F-0.06002214672057424
F1.6520004074564754
F-0.779985998337812
F-1.4964781175122082
F-0.9611507010167133
F-2.584012036673515
tp177
a(F-0.38329543177344605
F-0.19887950861017012
F0.10164119464155848
F0.40674994468777886
F0.6056447920994215
F-0.11360772044513062
F0.13580635240290143
tp178
a(F-0.47933783940051505
F0.36565041090892453
F-0.336716841408871
F0.15960713127216838
F-1.8965474404663836
F0.021916546435872507
F-0.9336595868809466
tp179
a(tag0
(g35
g2
Ntp180
Rp181
(lp182
I1
aI462991545
ababag0
(g28
g2
Ntp183
Rp184
(lp185
(F0.0849798952460267
F-0.08615654640444072
F1.6638453596552252
F-0.7173820437339344
F-1.4247902194248354
F-0.9779655961207901
F-2.5730654570923743
tp186
a(F-0.31978190473898516
F-0.13412016482320996
F0.06078758113583478
F0.3212797237213829
F0.3678979744556142
F-0.08629302873315986
F0.05617718698085535
tp187
a(F0.8947206431955286
F0.37525600528916775
F-0.170078115384757
F-0.8989114042844482
F-1.0293450237715362
F0.24144003468377132
F-0.15717865246143067
tp188
a(tag0
(g35
g2
Ntp189
Rp190
(lp191
I1
aI612945928
ababag0
(g28
g2
Ntp192
Rp193
(lp194
(F0.022667802794209976
F-0.1122909460883072
F1.675690311853975
F-0.6547780891300568
F-1.3531023213374624
F-0.994780491224867
F-2.5621188775112334
tp195
a(F-0.18104054066037345
F-0.026582513302956703
F-0.0028421285634192862
F0.15385053056057985
F-0.004894224343608783
F-0.03568135528200934
F-0.056832823082423434
tp196
a(F0.3283997790463962
F0.514764461517684
F-0.3470723060448787
F-0.544154704632118
F-2.0065200271078467
F0.1892585305995339
F-0.7348973006176597
tp197
a(tag0
(g35
g2
Ntp198
Rp199
(lp200
I1
aI891095746
ababag0
(g28
g2
Ntp201
Rp202
(lp203
(F-0.011210751110699677
F-0.10228058151481989
F1.6638453596552252
F-0.6345015770674163
F-1.4187501431701306
F-0.9974577571519705
F-2.5996692744407173
tp204
a(F-0.18975890047296085
F0.05606956483827808
F-0.06634536738782737
F0.1135718084435644
F-0.36770337141239723
F-0.01499577107177695
F-0.21032544817768883
tp205
a(F-0.5361797025737993
F0.15842926220324555
F-0.18746440490797217
F0.3209066785287119
F-1.038976742739792
F-0.04237180998145511
F-0.5942922095698135
tp206
a(tag0
(g35
g2
Ntp207
Rp208
(lp209
I2
aI136490100
ababag0
(g28
g2
Ntp210
Rp211
(lp212
(F-0.04508930501560933
F-0.09227021694133258
F1.6520004074564754
F-0.6142250650047759
F-1.4843979650027985
F-1.000135023079074
F-2.637219671370201
tp213
a(F-0.14662130567953907
F0.11223033963330327
F-0.10328593929847764
F0.04860288436969314
F-0.5817808546162876
F0.006806423352739918
F-0.2862804971069822
tp214
a(F0.991175679388453
F0.4272867363077568
F-0.19715316405163108
F-1.0023955733422012
F-1.1903213205098424
F0.2705584583285713
F-0.1949163008575141
tp215
a(tag0
(g35
g2
Ntp216
Rp217
(lp218
I2
aI276797085
ababag0
(g28
g2
Ntp219
Rp220
(lp221
(F-0.057642705010338684
F-0.055151279174829926
F1.622388026959601
F-0.6256941348480635
F-1.6530475767754973
F-0.9922090671234474
F-2.7111428006826537
tp222
a(F-0.06658699629779263
F0.19688997185414664
F-0.15707294209872066
F-0.06083538416004867
F-0.8945680914690688
F0.04204164609550872
F-0.39211043541321033
tp223
a(F-0.14929229827791482
F0.4414398912742955
F-0.3521675676481777
F-0.13639681653840569
F-2.00567879266139
F0.09426005553569469
F-0.8791366383278746
tp224
a(tag0
(g35
g2
Ntp225
Rp226
(lp227
I2
aI519223067
ababag0
(g28
g2
Ntp228
Rp229
(lp230
(F-0.07019610500506804
F-0.018032341408327275
F1.5927756464627265
F-0.637163204691351
F-1.821697188548196
F-0.9842831111678209
F-2.785065929995106
tp231
a(F-0.03649985225809581
F0.2595559122842166
F-0.20057629272181798
F-0.11949864339169748
F-1.1453773971772638
F0.06351962902696583
F-0.4872884871812706
tp232
a(F0.7087970319211366
F0.29826250862610554
F-0.13547938744336263
F-0.7126765842960268
F-0.8197013140480198
F0.19153153571821704
F-0.12628599222692058
tp233
a(tag0
(g35
g2
Ntp234
Rp235
(lp236
I2
aI673457677
ababag0
(g28
g2
Ntp237
Rp238
(lp239
(F-0.06936442036570595
F0.009563318539262497
F1.5720469801149144
F-0.6534796002483041
F-1.9403559244145558
F-0.9767857258957642
F-2.8341517387789885
tp240
a(F0.00895484132119364
F0.2971255501049346
F-0.22318786371598465
F-0.17568045173758717
F-1.277611850414457
F0.08072518387091604
F-0.5285123807495864
tp241
a(F0.01207492391175236
F0.4006512545636507
F-0.30095189582185056
F-0.23689175624956774
F-1.7227626184727685
F0.10885178397259249
F-0.712658835044515
tp242
a(tag0
(g35
g2
Ntp243
Rp244
(lp245
I2
aI772563501
ababag0
(g28
g2
Ntp246
Rp247
(lp248
(F-0.06853273572634386
F0.03715897848685227
F1.5513183137671023
F-0.6697959958052573
F-2.0590146602809156
F-0.9692883406237076
F-2.883237547562871
tp249
a(F0.01001568415228058
F0.3323247790422004
F-0.24962800226409584
F-0.19649258465018815
F-1.4289652160197375
F0.09028836087495277
F-0.5911230457685122
tp250
a(F0.011962099999790395
F0.3969077078379976
F-0.2981399054153565
F-0.23467832162693197
F-1.7066657205197524
F0.10783471055819807
F-0.7059999974193996
tp251
a(tag0
(g35
g2
Ntp252
Rp253
(lp254
I2
aI859945544
ababag0
(g28
g2
Ntp255
Rp256
(lp257
(F-0.06770105108698177
F0.06475463843444204
F1.5305896474192902
F-0.6861123913622104
F-2.1776733961472754
F-0.9617909553516509
F-2.9323233563467532
tp258
a(F0.010513570281484995
F0.348844858485636
F-0.2620371715129086
F-0.20626035796466213
F-1.5
F0.09477665361908971
F-0.6205081542310393
tp259
a(F5.043704492908481e-16
F1.82450527743472e-14
F-1.263119038224037e-14
F-1.0175125585693631e-14
F0.0
F4.5612631935868e-15
F4.0700502342774525e-14
tp260
a(tag0
(g35
g2
Ntp261
Rp262
(lp263
I2
aI939051368
ababag0
(g28
g2
Ntp264
Rp265
(lp266
(F-0.06686936644761968
F0.09235029838203182
F1.509860981071478
F-0.7024287869191634
F-2.2963321320136347
F-0.9542935700795943
F-2.981409165130635
tp267
a(F0.02740013839447616
F0.33655790152043324
F-0.25062383840655583
F-0.21222093878287746
F-1.4357548681799348
F0.09416325167984531
F-0.5886841666378253
tp268
a(F0.37917619990992846
F-0.2758951149427747
F0.25627849582082174
F-0.13384071699968395
F1.4425799714451144
F-0.013773516014850204
F0.7145856162621764
tp269
a(tag0
(g35
g2
Ntp270
Rp271
(lp272
I3
aI18157192
ababag0
(g28
g2
Ntp273
Rp274
(lp275
(F-0.062483489489894205
F0.12446405386179081
F1.4861710766739784
F-0.7240361127937712
F-2.4321578328699998
F-0.945028981160416
F-3.0365570959783454
tp276
a(F0.040840702235248036
F0.2990390149669348
F-0.22059723535462106
F-0.20120454145217798
F-1.2647908407000712
F0.08627061840247438
F-0.5135301889110507
tp277
a(F-0.06372055889784883
F-0.4665672263957717
F0.3441806423197361
F0.31392373618524544
F1.973354395183082
F-0.1346013099726745
F0.801221057851659
tp278
a(tag0
(g35
g2
Ntp279
Rp280
(lp281
I3
aI117190905
ababag0
(g28
g2
Ntp282
Rp283
(lp284
(F-0.05809761253216873
F0.1565778093415498
F1.4624811722764788
F-0.745643438668379
F-2.5679835337263643
F-0.9357643922412376
F-3.0917050268260557
tp285
a(F0.027113908361019005
F0.19853028974572967
F-0.14645324141701827
F-0.13357854297732477
F-0.8396873969762577
F0.057274569573740705
F-0.34092975195548725
tp286
a(F-0.0644172868075909
F-0.4716687260377002
F0.3479439529944202
F0.31735621437303735
F1.9949312787935591
F-0.13607305615583115
F0.8099817009240627
tp287
a(tag0
(g35
g2
Ntp288
Rp289
(lp290
I3
aI234476969
ababag0
(g28
g2
Ntp291
Rp292
(lp293
(F-0.04932585861671779
F0.2208053203010678
F1.4151013634814795
F-0.7888580904175946
F-2.8396349354390935
F-0.917235214402881
F-3.202000888521477
tp294
a(F0.0
F0.0
F0.0
F0.0
F0.0
F0.0
F0.0
tp295
a(F-0.06460598185633026
F-0.4730503668620706
F0.3489631716610641
F0.31828583356854495
F2.0007749532719337
F-0.13647164965822495
F0.8123543487661051
tp296
a(tag0
(g35
g2
Ntp297
Rp298
(lp299
I3
aI755577904
ababaabag0
(ctrajectory_msgs.msg._MultiDOFJointTrajectory
MultiDOFJointTrajectory
p300
g2
Ntp301
Rp302
(lp303
g0
(g10
g2
Ntp304
Rp305
(lp306
I0
ag0
(g14
g2
Ntp307
Rp308
(lp309
I0
aI0
abaS''
p310
aba(lp311
a(lp312
abab.