ccopy_reg
_reconstructor
p0
(cmoveit_msgs.msg._RobotTrajectory
RobotTrajectory
p1
c__builtin__
object
p2
Ntp3
Rp4
(lp5
g0
(ctrajectory_msgs.msg._JointTrajectory
JointTrajectory
p6
g2
Ntp7
Rp8
(lp9
g0
(cstd_msgs.msg._Header
Header
p10
g2
Ntp11
Rp12
(lp13
I0
ag0
(cgenpy.rostime
Time
p14
g2
Ntp15
Rp16
(lp17
I0
aI0
abaS'/world'
p18
aba(lp19
S'l_shoulder_pan_joint'
p20
aS'l_shoulder_lift_joint'
p21
aS'l_upper_arm_roll_joint'
p22
aS'l_elbow_flex_joint'
p23
aS'l_forearm_roll_joint'
p24
aS'l_wrist_flex_joint'
p25
aS'l_wrist_roll_joint'
p26
aa(lp27
g0
(ctrajectory_msgs.msg._JointTrajectoryPoint
JointTrajectoryPoint
p28
g2
Ntp29
Rp30
(lp31
(F0.7202840831532606
F0.350146395351838
F1.4156454289999543
F-1.451364769841362
F-2.888604239173082
F-0.761932707530887
F-2.9894775913428795
tp32
a(F0.0
F0.0
F0.0
F0.0
F0.0
F0.0
F0.0
tp33
a(F-0.9289158321743654
F0.0
F0.0
F0.0
F0.0
F0.0
F0.0
tp34
a(tag0
(cgenpy.rostime
Duration
p35
g2
Ntp36
Rp37
(lp38
I0
aI0
ababag0
(g28
g2
Ntp39
Rp40
(lp41
(F0.7061957284290388
F0.34044849110371667
F1.4046117352316543
F-1.4419490743538048
F-2.868804831363994
F-0.7691909353990353
F-2.9845587081020475
tp42
a(F-0.12600827315928673
F-0.08673945194387274
F-0.09868694574544344
F0.08421533615567807
F0.17708875425391413
F-0.06491863512561322
F0.0439951999493419
tp43
a(F-0.7035980145569323
F-0.48433094622539097
F-0.5510427001995831
F0.4702369283283267
F0.9888183749324843
F-0.3624890781924111
F0.24565796005522714
tp44
a(tag0
(g35
g2
Ntp45
Rp46
(lp47
I0
aI174163424
ababag0
(g28
g2
Ntp48
Rp49
(lp50
(F0.6921073737048169
F0.3307505868555954
F1.3935780414633545
F-1.4325333788662475
F-2.849005423554906
F-0.7764491632671835
F-2.9796398248612155
tp51
a(F-0.21871644441118493
F-0.14799186037854245
F-0.16742509933476324
F0.14711324491681105
F0.3007404147215649
F-0.11107471886022864
F0.07327506148576574
tp52
a(F-0.9561288428658833
F-0.6066425872363493
F-0.6710923685006202
F0.6578578494615053
F1.2103590772947594
F-0.460315022047962
F0.27177362242073316
tp53
a(tag0
(g35
g2
Ntp54
Rp55
(lp56
I0
aI256491298
ababag0
(g28
g2
Ntp57
Rp58
(lp59
(F0.661009846654846
F0.3099431183738557
F1.370126691785686
F-1.411530825846812
F-2.8068520416364993
F-0.792095200561519
F-2.969503635776262
tp60
a(F-0.31468151813069023
F-0.21055454859059114
F-0.23730846208201145
F0.21252864442101893
F0.42655771936821474
F-0.15832508998542744
F0.1025699363228279
tp61
a(F-0.9558679740740486
F-0.639574738894504
F-0.7208416948933957
F0.6455711984046463
F1.295700063544267
F-0.4809239637219807
F0.3115636336579745
tp62
a(tag0
(g35
g2
Ntp63
Rp64
(lp65
I0
aI373264118
ababag0
(g28
g2
Ntp66
Rp67
(lp68
(F0.629912319604875
F0.28913564989211604
F1.3466753421080178
F-1.3905282728273765
F-2.7646986597180927
F-0.8077412378558546
F-2.9593674466913082
tp69
a(F-0.41201685887155376
F-0.27376110249591146
F-0.307813338526313
F0.2789693488780934
F0.5535258468027968
F-0.2060938653000049
F0.13198265343788435
tp70
a(F-0.8631010165246762
F-0.5436426841600355
F-0.5997994887431691
F0.5953050500273226
F1.0823044589507202
F-0.4130373563234709
F0.24054242553108776
tp71
a(tag0
(g35
g2
Ntp72
Rp73
(lp74
I0
aI458919232
ababag0
(g28
g2
Ntp75
Rp76
(lp77
(F0.564796447903406
F0.24610905294313962
F1.298388680611612
F-1.3463520047441841
F-2.67783732958105
F-0.840162894002565
F-2.938796645918112
tp78
a(F-0.5186453784465608
F-0.3427051665710261
F-0.38460137553774487
F0.3518622523154688
F0.6918471067673952
F-0.25823722669592303
F0.16384562585410994
tp79
a(F-0.907270570248884
F-0.5994969295463805
F-0.6727863079543244
F0.6155154939652174
F1.2102537594414724
F-0.4517364767148712
F0.2866164832060599
tp80
a(tag0
(g35
g2
Ntp81
Rp82
(lp83
I0
aI600174967
ababag0
(g28
g2
Ntp84
Rp85
(lp86
(F0.49968057620193695
F0.2030824559941632
F1.2501020191152064
F-1.3021757366609918
F-2.590975999444007
F-0.8725845501492755
F-2.918225845144916
tp87
a(F-0.530207907661612
F-0.3497573663521667
F-0.39228853307733735
F0.3599216469083093
F0.7057490229969219
F-0.2636259499309704
F0.16679017843709637
tp88
a(F0.7588381688230832
F0.5110947894472326
F0.5773161395916454
F-0.5112751281877906
F-1.0373019186544623
F0.38389354175616974
F-0.251381066456366
tp89
a(tag0
(g35
g2
Ntp90
Rp91
(lp92
I0
aI713162124
ababag0
(g28
g2
Ntp93
Rp94
(lp95
(F0.4367285689456851
F0.16163859225996122
F1.2036506675224694
F-1.259411552169518
F-2.507396972938011
F-0.9038330055618587
F-2.8985228118025947
tp96
a(F-0.4091341312723848
F-0.2693496192495099
F-0.3018940016155738
F0.27793057336950266
F0.543192090173206
F-0.20308819712117165
F0.12805284185979246
tp97
a(F0.9417558167479636
F0.6199961119797116
F0.6949076362282448
F-0.6397479802255074
F-1.2503339893476872
F0.4674738095228425
F-0.2947554345992389
tp98
a(tag0
(g35
g2
Ntp99
Rp100
(lp101
I0
aI843200403
ababag0
(g28
g2
Ntp102
Rp103
(lp104
(F0.3737765616894333
F0.12019472852575926
F1.1571993159297327
F-1.216647367678044
F-2.423817946432015
F-0.935081460974442
F-2.878819778460274
tp105
a(F-0.28126831183396545
F-0.18452152313284867
F-0.20656485738103197
F0.19130686641262945
F0.37174995950288015
F-0.13921100394632144
F0.0872512793958056
tp106
a(F0.714498043606139
F0.4791472141492641
F0.540439400617868
F-0.482162649793453
F-0.9712977271371135
F0.360156795000303
F-0.23418302907945462
tp107
a(tag0
(g35
g2
Ntp108
Rp109
(lp110
I1
aI31586628
ababag0
(g28
g2
Ntp111
Rp112
(lp113
(F0.3491706279751142
F0.10413545968834292
F1.13925389596307
F-1.1998810654337637
F-2.3915114754067495
F-0.9472078960663961
F-2.871286891667947
tp114
a(F-0.2568839204750887
F-0.1676574433961932
F-0.18734870576870458
F0.1750388139050618
F0.33727689548540113
F-0.12659898315482684
F0.07864271741014849
tp115
a(F-0.5879898470418845
F-0.3837565010516958
F-0.42882846324012486
F0.40065195682189825
F0.7720039067468855
F-0.2897764741490866
F0.18000783893146863
tp116
a(tag0
(g35
g2
Ntp117
Rp118
(lp119
I1
aI139331584
ababag0
(g28
g2
Ntp120
Rp121
(lp122
(F0.3245646942607952
F0.08807619085092659
F1.1213084759964076
F-1.1831147631894836
F-2.359205004381484
F-0.9593343311583502
F-2.8637540048756196
tp123
a(F-0.24237859390221542
F-0.15105371666188505
F-0.16600307832253744
F0.16776560496253717
F0.2997591553451564
F-0.11497949041268091
F0.06560630816167595
tp124
a(F0.9568676169272541
F0.783255266851781
F0.93734849846387
F-0.5939325145470926
F-1.6672317502452458
F0.5710187279965938
F-0.48413846514528475
tp125
a(tag0
(g35
g2
Ntp126
Rp127
(lp128
I1
aI225548453
ababag0
(g28
g2
Ntp129
Rp130
(lp131
(F0.30590281329704383
F0.07723246740777978
F1.1097138359670211
F-1.169909944461725
F-2.338161239184614
F-0.9676943586283728
F-2.8596501008218564
tp132
a(F-0.18969213848451186
F-0.11022303127217394
F-0.11785586171107623
F0.13422282071320968
F0.2139032410352376
F-0.08497704447146341
F0.041714891312708405
tp133
a(F0.19605866854449308
F0.113922384590146
F0.12181139140420118
F-0.13872766540333095
F-0.2210823546498388
F0.08782908099948018
F-0.04311494463918116
tp134
a(tag0
(g35
g2
Ntp135
Rp136
(lp137
I1
aI319156762
ababag0
(g28
g2
Ntp138
Rp139
(lp140
(F0.2872409323332925
F0.06638874396463297
F1.0981191959376346
F-1.1567051257339664
F-2.317117473987744
F-0.9760543860983955
F-2.8555461967680933
tp141
a(F-0.2415110155177729
F-0.13892202035852402
F-0.14792223415890432
F0.1714051025511508
F0.26868359204993547
F-0.10730656597639343
F0.05141079675961328
tp142
a(F-0.9737808004987948
F-0.5434814093325774
F-0.5712981864195574
F0.6972044737727539
F1.0402259798647682
F-0.4222287705075872
F0.18722775626493596
tp143
a(tag0
(g35
g2
Ntp144
Rp145
(lp146
I1
aI422820687
ababag0
(g28
g2
Ntp147
Rp148
(lp149
(F0.24212108332874377
F0.040591516413239576
F1.0707201841567255
F-1.1246253917920574
F-2.2673265649669334
F-0.996003618645184
F-2.846130111641464
tp150
a(F-0.35410219905858736
F-0.20245757038420611
F-0.2150284306730279
F0.2517629066732741
F0.39076084619914087
F-0.1565622950918303
F0.07389777500199757
tp151
a(F-0.785411432793983
F-0.44905818393163627
F-0.4769408048731334
F0.5584191958715353
F0.8667216326500932
F-0.3472608101178261
F0.1639079268609776
tp152
a(tag0
(g35
g2
Ntp153
Rp154
(lp155
I1
aI571731510
ababag0
(g28
g2
Ntp156
Rp157
(lp158
(F0.19700123432419503
F0.01479428886184618
F1.0433211723758162
F-1.0925456578501482
F-2.2175356559461235
F-1.0159528511919727
F-2.836714026514835
tp159
a(F-0.4043736275532277
F-0.18577850483285863
F-0.1770307911284383
F0.30412066673248306
F0.3286654475406901
F-0.1503341284607963
F0.029681219426998445
tp160
a(F0.013999910878067309
F0.7726332344211845
F1.162050148488275
F0.26974824576372636
F-1.9946425662652087
F0.4852031602147048
F-0.923871330163901
tp161
a(tag0
(g35
g2
Ntp162
Rp163
(lp164
I1
aI683082107
ababag0
(g28
g2
Ntp165
Rp166
(lp167
(F0.14604848884012647
F-0.0028676572423397342
F1.0296845769675367
F-1.0521229724960133
F-2.190997971915685
F-1.031295331836258
F-2.8398958823847664
tp168
a(F-0.32969361218848947
F-0.11428296461842605
F-0.0882366270040226
F0.2615580578073162
F0.1717141014481293
F-0.09927468707506784
F-0.02058844023525403
tp169
a(F0.9077345296876921
F0.3146515106877886
F0.2429389898792864
F-0.7201391589413467
F-0.47277476225303305
F0.27332971598629885
F0.05668547227802179
tp170
a(tag0
(g35
g2
Ntp171
Rp172
(lp173
I1
aI809345910
ababag0
(g28
g2
Ntp174
Rp175
(lp176
(F0.0950957433560579
F-0.020529603346525652
F1.0160479815592571
F-1.0117002871418785
F-2.1644602878852464
F-1.0466378124805438
F-2.843077738254698
tp177
a(F-0.22260145839987738
F-0.008832752917657873
F0.04350763044590353
F0.20159253584230635
F-0.06092649685384889
F-0.024222572480355677
F-0.09619836538705014
tp178
a(F0.3408579358589538
F0.8187438286539173
F1.1481632520159608
F-0.014138212901280147
F-1.9909641417268193
F0.5415321663835622
F-0.8225342763926042
tp179
a(tag0
(g35
g2
Ntp180
Rp181
(lp182
I2
aI8500466
ababag0
(g28
g2
Ntp183
Rp184
(lp185
(F0.05893517295374699
F-0.0069674824480500126
F1.0457405906477595
F-0.9734666141774422
F-2.2131761976594904
F-1.0411775842430573
F-2.8767676571906167
tp186
a(F-0.24242280448988596
F0.09092133631910976
F0.1990611731997634
F0.25632101824907727
F-0.32659461229056685
F0.036605723520384
F-0.2258593971449172
tp187
a(F-0.6774124051384276
F0.2540653765801051
F0.5562451452976116
F0.7162487779357467
F-0.9126172856656131
F0.10228893797329369
F-0.6311285679785651
tp188
a(tag0
(g35
g2
Ntp189
Rp190
(lp191
I2
aI199464842
ababag0
(g28
g2
Ntp192
Rp193
(lp194
(F0.02277460255143609
F0.006594638450425627
F1.075433199736262
F-0.9352329412130059
F-2.2618921074337344
F-1.0357173560055706
F-2.910457576126535
tp195
a(F-0.23335628401700942
F0.15190527089457528
F0.28874910441094404
F0.2702865769547539
F-0.481034938142628
F0.0755712366213781
F-0.29495945211736946
tp196
a(F0.9683760282221855
F0.640294366877294
F0.7187338837559077
F-0.6568170658645289
F-1.2928546125530112
F0.48242493606260467
F-0.3064271802611968
tp197
a(tag0
(g35
g2
Ntp198
Rp199
(lp200
I2
aI321840636
ababag0
(g28
g2
Ntp201
Rp202
(lp203
(F-0.00021519262344154438
F0.03250639610719147
F1.1203942793094104
F-0.9046006594187976
F-2.337616653498464
F-1.0214147201168668
F-2.9527006210664775
tp204
a(F-0.2001720051413798
F0.22561351449360734
F0.3914758432173009
F0.2667150891149732
F-0.6593331566851759
F0.12453296268500247
F-0.3678099323888673
tp205
a(F-0.4935472648888645
F0.556276253123596
F0.9652290366652422
F0.657616946207401
F-1.6256622693201968
F0.3070504443330088
F-0.9068779922610197
tp206
a(tag0
(g35
g2
Ntp207
Rp208
(lp209
I2
aI456107503
ababag0
(g28
g2
Ntp210
Rp211
(lp212
(F-0.02320498779831918
F0.05841815376395731
F1.165355358882559
F-0.8739683776245892
F-2.4133411995631935
F-1.0071120842281631
F-2.9949436660064195
tp213
a(F-0.1854724078567605
F0.24928889593107345
F0.4234404437791037
F0.26184994360414005
F-0.715082302405216
F0.14059891086769155
F-0.389270487365898
tp214
a(F0.9645455880474129
F-0.19780965858240476
F-0.5446844420956299
F-0.9598718909584019
F0.8750828523070766
F-0.04293958194331218
F0.7011806103278095
tp215
a(tag0
(g35
g2
Ntp216
Rp217
(lp218
I2
aI556447315
ababag0
(g28
g2
Ntp219
Rp220
(lp221
(F-0.03464540760008793
F0.077805117934642
F1.1975241749282173
F-0.8563498657811379
F-2.4678294244042114
F-0.9959273419187973
F-3.0237848998884225
tp222
a(F-0.14680755386826835
F0.2487804500312088
F0.41280173947561327
F0.22608703800679697
F-0.6992123665162437
F0.14352660894760727
F-0.37010101640718057
tp223
a(F-0.1277172878758731
F0.21643003726522028
F0.3591226555247342
F0.19668758559949623
F-0.6082895923791921
F0.12486298388472503
F-0.3219745633663568
tp224
a(tag0
(g35
g2
Ntp225
Rp226
(lp227
I2
aI637112814
ababag0
(g28
g2
Ntp228
Rp229
(lp230
(F-0.04608582740185667
F0.09719208210532668
F1.2296929909738754
F-0.8387313539376866
F-2.522317649245229
F-0.9847425996094314
F-3.052626133770425
tp231
a(F-0.11680459118360287
F0.24503997868624489
F0.39949857021586277
F0.19711197014204868
F-0.6782369636680945
F0.1437023212886478
F-0.35119601220878605
tp232
a(F0.967662050466326
F-0.336977853776496
F-0.7554346607129668
F-1.0136473343891386
F1.2364839960485479
F-0.12986194748141514
F0.8702961188596121
tp233
a(tag0
(g35
g2
Ntp234
Rp235
(lp236
I2
aI712483028
ababag0
(g28
g2
Ntp237
Rp238
(lp239
(F-0.051751559517070965
F0.11331664953297078
F1.2554656752557887
F-0.827619727069614
F-2.5661877134743905
F-0.9751168040897344
F-3.0747664621234585
tp240
a(F-0.07546251024622941
F0.214764890040797
F0.34326922137284044
F0.1479969824433712
F-0.5843102187104792
F0.12820703101769682
F-0.294889472573039
tp241
a(F0.16813755510979034
F-0.4785163310504487
F-0.7648360416019636
F-0.32975116664498855
F1.3018980057657945
F-0.285657297549006
F0.6570414207566574
tp242
a(tag0
(g35
g2
Ntp243
Rp244
(lp245
I2
aI781729738
ababag0
(g28
g2
Ntp246
Rp247
(lp248
(F-0.05741729163228526
F0.1294412169606149
F1.2812383595377017
F-0.8165081002015412
F-2.610057777703552
F-0.9654910085700376
F-3.096906790476492
tp249
a(F-0.03260640485080461
F0.1856736334468509
F0.2884392972945024
F0.0979219337029987
F-0.4928778535167423
F0.11358048459371756
F-0.23928213647424645
tp250
a(F0.9922116259160422
F-0.2990121834701966
F-0.704426003576243
F-1.0223483942579517
F1.1474529759637018
F-0.10401664812671294
F0.8363512320389244
tp251
a(tag0
(g35
g2
Ntp252
Rp253
(lp254
I2
aI863716433
ababag0
(g28
g2
Ntp255
Rp256
(lp257
(F-0.057163660203047084
F0.1408222445943375
F1.2983434644778762
F-0.8125782834564099
F-2.639421378668102
F-0.9583398975817476
F-3.110492828300348
tp258
a(F0.004365365925703411
F0.19588404473755722
F0.29440374359637855
F0.06763786398626749
F-0.5053902960355269
F0.1230810248279155
F-0.23383547835424257
tp259
a(F0.01607989066052026
F0.7215418077495623
F1.0844405916131952
F0.2491450833494402
F-1.8616127123018218
F0.4533707953242462
F-0.8613364809459362
tp260
a(tag0
(g35
g2
Ntp261
Rp262
(lp263
I2
aI928872144
ababag0
(g28
g2
Ntp264
Rp265
(lp266
(F-0.05691002877380891
F0.15220327222806013
F1.3154485694180509
F-0.8086484667112788
F-2.668784979632651
F-0.9511887865934578
F-3.1240788661242043
tp267
a(F0.005227421769227908
F0.2345664801377501
F0.3525414740506383
F0.08099473186063305
F-0.6051928476137896
F0.14738659702637608
F-0.2800124183792967
tp268
a(F0.015961700263338995
F0.7162383318341324
F1.0764697373985037
F0.2473138173926476
F-1.8479294882983288
F0.45003842973168373
F-0.8550054863553035
tp269
a(tag0
(g35
g2
Ntp270
Rp271
(lp272
I2
aI981296616
ababag0
(g28
g2
Ntp273
Rp274
(lp275
(F-0.05665639734457073
F0.16358429986178274
F1.3325536743582256
F-0.8047186499661475
F-2.6981485805972008
F-0.944037675605168
F-3.1376649039480604
tp276
a(F0.005366424157548854
F0.24080383813153644
F0.36191590546990815
F0.08314846302430597
F-0.6212855324834703
F0.15130575448058492
F-0.2874582294564455
tp277
a(F-0.010572376448004843
F-0.4744069332033201
F-0.713009460828027
F-0.16381054243157284
F1.2239928000984892
F-0.29808702185195834
F0.566320612323465
tp278
a(tag0
(g35
g2
Ntp279
Rp280
(lp281
I3
aI26452406
ababag0
(g28
g2
Ntp282
Rp283
(lp284
(F-0.05640276591533255
F0.1749653274955054
F1.3496587792984003
F-0.8007888332210162
F-2.7275121815617505
F-0.9368865646168782
F-3.1512509417719166
tp285
a(F0.029034342367065438
F0.2317368102694765
F0.3421943058835377
F0.05805403616351412
F-0.5889072519123351
F0.14761268774375383
F-0.2651781915389026
tp286
a(F0.9743979269356507
F0.08833328864249186
F-0.11551350825667131
F-0.8642659839131858
F0.13812844766718507
F0.13714617023237682
F0.36126713527977616
tp287
a(tag0
(g35
g2
Ntp288
Rp289
(lp290
I3
aI76028140
ababag0
(g28
g2
Ntp291
Rp292
(lp293
(F-0.05382867075646497
F0.18633575102312944
F1.3661554417237887
F-0.7989980371706362
F-2.7559748876273833
F-0.9295472753643799
F-3.163710508122924
tp294
a(F0.05009981213907745
F0.22130342800781222
F0.3210758101100398
F0.03485440132015469
F-0.5539718381993741
F0.14284515143810061
F-0.24250149858269665
tp295
a(F-0.11068972816013588
F-0.48894427426375103
F-0.7093797885152305
F-0.07700675995759008
F1.223936569032186
F-0.31559980579930924
F0.5357789542609359
tp296
a(tag0
(g35
g2
Ntp297
Rp298
(lp299
I3
aI124639407
ababag0
(g28
g2
Ntp300
Rp301
(lp302
(F-0.051254575597597385
F0.19770617455075346
F1.3826521041491773
F-0.7972072411202563
F-2.784437593693016
F-0.9222079861118814
F-3.176170074473932
tp303
a(F0.04174474066083332
F0.1843969830444482
F0.2675304727351714
F0.029041784427441736
F-0.4615867751128821
F0.11902307707038089
F-0.20205988278151893
tp304
a(F-0.17536191408044727
F-0.7746175299077472
F-1.1238459032446182
F-0.12199915066872628
F1.9390404423798884
F-0.49999387430354014
F0.848816096171925
tp305
a(tag0
(g35
g2
Ntp306
Rp307
(lp308
I3
aI179121095
ababag0
(g28
g2
Ntp309
Rp310
(lp311
(F-0.0486804804387298
F0.20907659807837747
F1.3991487665745659
F-0.7954164450698764
F-2.812900299758649
F-0.9148686968593829
F-3.1886296408249395
tp312
a(F0.02547479482144597
F0.11252855412174928
F0.1632608993019161
F0.017722795442634026
F-0.281684068511322
F0.07263402333769733
F-0.12330736696453257
tp313
a(F-0.1750502723191956
F-0.7732409301336022
F-1.1218486775727994
F-0.12178234173170097
F1.9355945061184916
F-0.4991053177864702
F0.8473076355430772
tp314
a(tag0
(g35
g2
Ntp315
Rp316
(lp317
I3
aI250145307
ababag0
(g28
g2
Ntp318
Rp319
(lp320
(F-0.046106385279862216
F0.2204470216060015
F1.4156454289999543
F-0.7936256490194964
F-2.8413630058242814
F-0.9075294076068845
F-3.201089207175947
tp321
a(F0.0
F0.0
F0.0
F0.0
F0.0
F0.0
F0.0
tp322
a(F-0.16805783383832082
F-0.7423535766709665
F-1.0770360774045526
F-0.11691770758214141
F1.8582765715123586
F-0.47916839804413636
F0.8134616641120419
tp323
a(tag0
(g35
g2
Ntp324
Rp325
(lp326
I3
aI425169432
ababaabag0
(ctrajectory_msgs.msg._MultiDOFJointTrajectory
MultiDOFJointTrajectory
p327
g2
Ntp328
Rp329
(lp330
g0
(g10
g2
Ntp331
Rp332
(lp333
I0
ag0
(g14
g2
Ntp334
Rp335
(lp336
I0
aI0
abaS''
p337
aba(lp338
a(lp339
abab.