(igps.agent.ros.cad.util
ConditionInfo
p1
(dp2
S'good'
p3
I00
sS'actual'
p4
I4
sS'initial'
p5
cnumpy.core.multiarray
_reconstruct
p6
(cnumpy
ndarray
p7
(I0
tS'b'
tRp8
(I1
(I7
tcnumpy
dtype
p9
(S'f8'
I0
I1
tRp10
(I3
S'<'
NNNI-1
I-1
I0
tbI00
S'\xc0\r\xee\xff\xcb"\xab\xbf~oP\x87\xca=\xd0\xbf\xe4\x08J\x82\x83\xc9\xe6?\xbc,\x80\xfff,\xe1\xbf\xbc\x9aOW\xf4\x82\xd9?>N\xe9\xce\xa1%\xd7\xbf|\xc8\xe7k\xffL\xf6?'
tbsS'data_path'
p11
S'/home/melissachien/new_gps/experiments/pr2_cad_new/condition_info/data00.pkl'
p12
sS'plan'
p13
ccopy_reg
_reconstructor
p14
(cmoveit_msgs.msg._RobotTrajectory
RobotTrajectory
p15
c__builtin__
object
p16
NtRp17
(lp18
g14
(ctrajectory_msgs.msg._JointTrajectory
JointTrajectory
p19
g16
NtRp20
(lp21
g14
(cstd_msgs.msg._Header
Header
p22
g16
NtRp23
(lp24
I0
ag14
(cgenpy.rostime
Time
p25
g16
NtRp26
(lp27
I0
aI0
abaS'/odom_combined'
p28
aba(lp29
S'l_shoulder_pan_joint'
p30
aS'l_shoulder_lift_joint'
p31
aS'l_upper_arm_roll_joint'
p32
aS'l_elbow_flex_joint'
p33
aS'l_forearm_roll_joint'
p34
aS'l_wrist_flex_joint'
p35
aS'l_wrist_roll_joint'
p36
aa(lp37
g14
(ctrajectory_msgs.msg._JointTrajectoryPoint
JointTrajectoryPoint
p38
g16
NtRp39
(lp40
(F0.15153475343999379
F0.067400968803775996
F1.0841194287573952
F-1.0003090370887042
F1.8235247715766398
F-1.9585484110103488
F1.0921087613806177
tp41
ag6
(g7
(I0
tS'b'
tRp42
(I1
(I7
tg9
(S'f8'
I0
I1
tRp43
(I3
S'<'
NNNI-1
I-1
I0
tbI00
S'\x00\x00\x00\x00\x00\x00\x00\x80\x00\x00\x00\x00\x00\x00\x00\x80\x00\x00\x00\x00\x00\x00\x00\x80\x00\x00\x00\x00\x00\x00\x00\x80\x00\x00\x00\x00\x00\x00\x00\x80\x00\x00\x00\x00\x00\x00\x00\x80\x00\x00\x00\x00\x00\x00\x00\x80'
tba(F0.9635984837986864
F-0.12116458179142756
F0
F0.40149760144749652
F0.25381811410501459
F0.036676440870843992
F-0.2196262769044931
tp44
a(tag14
(cgenpy.rostime
Duration
p45
g16
NtRp46
(lp47
I0
aI0
ababag14
(g38
g16
NtRp48
(lp49
(F0.19225581666007457
F0.062280630116947837
F1.0841194287573952
F-0.98334200207760514
F1.8342509647417915
F-1.9569984877876581
F1.0828274936565734
tp50
ag6
(g7
(I0
tS'b'
tRp51
(I1
(I7
tg43
I00
S'\xd2\xff\xfaJ+\xeb\xce?\x9e\x9fc\xa1#\x1a\x9f\xbf\x00\x00\x00\x00\x00\x00\x00\x80H\xe5\xec\xfa\xf1\xc3\xb9?\x04d;l\xd0I\xb0?\x1d\xc5Y\xd0D\xd4\x82?\xd8\x1b\xf4n20\xac\xbf'
tba(F0.99145385250615592
F-0.12466716523965081
F0
F0.4131039540015099
F0.26115539957390499
F0.037736670624733584
F-0.22597515667536494
tp52
a(tag14
(g45
g16
NtRp53
(lp54
I0
aI290721063
ababag14
(g38
g16
NtRp55
(lp56
(F0.23297687988015536
F0.057160291430119685
F1.0841194287573952
F-0.96637496706650616
F1.8449771579069429
F-1.9554485645649675
F1.0735462259325288
tp57
ag6
(g7
(I0
tS'b'
tRp58
(I1
(I7
tg43
I00
S'\xf4\xc0\xff\xfa\xe0 \xd9?w\xf4\xc1~\rG\xa9\xbf\x00\x00\x00\x00\x00\x00\x00\x80CW\xd7q\xb5\xf0\xc4?\x9a\x89\xbcA\xd9y\xba?\xaeO\xfeJ"\x9b\x8e?\xcc\x17H\x00\xce\xe8\xb6\xbf'
tba(F0.94117224389385079
F-0.11834466662457181
F0
F0.39215337594001703
F0.24791089650888964
F0.035822854366052634
F-0.21451482056858617
tp59
a(tag14
(g45
g16
NtRp60
(lp61
I0
aI408436679
ababag14
(g38
g16
NtRp62
(lp63
(F0.27369794310023615
F0.052039952743291526
F1.0841194287573952
F-0.94940793205540719
F1.8557033510720946
F-1.9538986413422768
F1.0642649582084844
tp64
ag6
(g7
(I0
tS'b'
tRp65
(I1
(I7
tg43
I00
S'&%\xef\x9a\xb0\xbe\xde?}\x84>_e\xed\xae\xbf\x00\x00\x00\x00\x00\x00\x00\x806\x8a\x93\x1d\xe1\x9e\xc9?\xe2Rw\xc4a2\xc0?\x82\x91\xack.\xb9\x92?\xe4e\xc9G\xa5\x07\xbc\xbf'
tba(F0.89466225499956042
F-0.11249641815983197
F0
F0.37277429917892457
F0.23565986263254579
F0.034052593322388996
F-0.20391412341990994
tp66
a(tag14
(g45
g16
NtRp67
(lp68
I0
aI500518047
ababag14
(g38
g16
NtRp69
(lp70
(F0.31441900632031694
F0.046919614056463367
F1.0841194287573952
F-0.93244089704430821
F1.8664295442372463
F-1.952348718119586
F1.0549836904844399
tp71
ag6
(g7
(I0
tS'b'
tRp72
(I1
(I7
tg43
I00
S'\x14IliR\xa5\xe1?\xdf\xc4\xfb\xe7 \xc0\xb1\xbf\x00\x00\x00\x00\x00\x00\x00\x80*\xc5p4\xd6h\xcd?\x8fCwi\x91\x97\xc2?\x8br\xa6\xe5\x04~\x95?\x18\xf8\xa3\x18h\x16\xc0\xbf'
tba(F0.88739963203715488
F-0.11158320307207249
F0
F0.36974821959430038
F0.23374684046116903
F0.033776163703447735
F-0.20225880445804079
tp73
a(tag14
(g45
g16
NtRp74
(lp75
I0
aI579046994
ababag14
(g38
g16
NtRp76
(lp77
(F0.35514006954039767
F0.041799275369635208
F1.0841194287573952
F-0.91547386203320913
F1.8771557374023977
F-1.9507987948968954
F1.0457024227603955
tp78
ag6
(g7
(I0
tS'b'
tRp79
(I1
(I7
tg43
I00
S'\x14IliR\xa5\xe1?\xdc\xc4\xfb\xe7 \xc0\xb1\xbf\x00\x00\x00\x00\x00\x00\x00\x80%\xc5p4\xd6h\xcd?\x8cCwi\x91\x97\xc2?\x88r\xa6\xe5\x04~\x95?\x15\xf8\xa3\x18h\x16\xc0\xbf'
tba(F-0.88739963203715433
F0.11158320307207355
F0
F-0.36974821959430393
F-0.23374684046117114
F-0.033776163703448048
F0.20225880445804273
tp80
a(tag14
(g45
g16
NtRp81
(lp82
I0
aI648737448
ababag14
(g38
g16
NtRp83
(lp84
(F0.39586113276047852
F0.036678936682807049
F1.0841194287573952
F-0.89850682702211015
F1.8878819305675494
F-1.9492488716742047
F1.0364211550363509
tp85
ag6
(g7
(I0
tS'b'
tRp86
(I1
(I7
tg43
I00
S'&%\xef\x9a\xb0\xbe\xde?|\x84>_e\xed\xae\xbf\x00\x00\x00\x00\x00\x00\x00\x806\x8a\x93\x1d\xe1\x9e\xc9?\xe2Rw\xc4a2\xc0?\x82\x91\xack.\xb9\x92?\xe3e\xc9G\xa5\x07\xbc\xbf'
tba(F-0.89466225499956109
F0.11249641815983026
F0
F-0.37277429917891869
F-0.23565986263254221
F-0.034052593322388469
F0.20391412341990683
tp87
a(tag14
(g45
g16
NtRp88
(lp89
I0
aI727266396
ababag14
(g38
g16
NtRp90
(lp91
(F0.43658219598055925
F0.03155859799597889
F1.0841194287573952
F-0.88153979201101118
F1.898608123732701
F-1.9476989484515139
F1.0271398873123065
tp92
ag6
(g7
(I0
tS'b'
tRp93
(I1
(I7
tg43
I00
S'\xc4oS(\x948\xd9?+\x00\x0b\xad\xe4^\xa9\xbf\x00\x00\x00\x00\x00\x00\x00\x80\x84N@gu\x04\xc5?Db\xe3\xca\xd1\x92\xba?.W/\x02\x00\xb8\x8e?\xee`\xfcei\xfe\xb6\xbf'
tba(F-0.9180463936891845
F0.11543678121822212
F0
F-0.38251764742370525
F-0.24181939700498625
F-0.03494263932640735
F0.20924390694003997
tp94
a(tag14
(g45
g16
NtRp95
(lp96
I0
aI819347763
ababag14
(g38
g16
NtRp97
(lp98
(F0.47730325920064004
F0.026438259309150738
F1.0841194287573952
F-0.8645727569999121
F1.9093343168978525
F-1.9461490252288234
F1.017858619588262
tp99
ag6
(g7
(I0
tS'b'
tRp100
(I1
(I7
tg43
I00
S'r]\xa2\xa5\x91\x1a\xcf?\xfe\xb6\xf5\xfd\xd1I\x9f\xbf\x00\x00\x00\x00\x00\x00\x00\x80\xb5\xd3\xbe\xe5q\xeb\xb9?\xa9<b\xf5\xc8b\xb0?\x98\xcc\x8a\x87"\xf1\x82?\x16\xae\\:i[\xac\xbf'
tba(F-1.0080302453046144
F0.12675151025970297
F0
F-0.42001075394063186
F-0.26552172935701362
F-0.03836760051985727
F0.22975329818974341
tp101
a(tag14
(g45
g16
NtRp102
(lp103
I0
aI938056160
ababag14
(g38
g16
NtRp104
(lp105
(F0.51802432242072083
F0.02131792062232258
F1.0841194287573952
F-0.84760572198881312
F1.9200605100630042
F-1.9445991020061326
F1.0085773518642176
tp106
ag6
(g7
(I0
tS'b'
tRp107
(I1
(I7
tg43
I00
S'\x00\x00\x00\x00\x00\x00\x00\x80\x00\x00\x00\x00\x00\x00\x00\x80\x00\x00\x00\x00\x00\x00\x00\x80\x00\x00\x00\x00\x00\x00\x00\x80\x00\x00\x00\x00\x00\x00\x00\x80\x00\x00\x00\x00\x00\x00\x00\x80\x00\x00\x00\x00\x00\x00\x00\x80'
tba(F-0.9635984837986864
F0
F0
F0
F0
F0
F0
tp108
a(tag14
(g45
g16
NtRp109
(lp110
I1
aI228777223
ababaabag14
(ctrajectory_msgs.msg._MultiDOFJointTrajectory
MultiDOFJointTrajectory
p111
g16
NtRp112
(lp113
g14
(g22
g16
NtRp114
(lp115
I0
ag14
(g25
g16
NtRp116
(lp117
I0
aI0
abaS''
aba(lp118
a(lp119
ababsS'path'
p120
S'/home/melissachien/new_gps/experiments/pr2_cad_new/condition_info/info00.pkl'
p121
sb.